ARM GAS  C:\Users\tugru\AppData\Local\Temp\cc2Qf47L.s 			page 1


   1              		.cpu cortex-m0plus
   2              		.arch armv6s-m
   3              		.fpu softvfp
   4              		.eabi_attribute 20, 1
   5              		.eabi_attribute 21, 1
   6              		.eabi_attribute 23, 3
   7              		.eabi_attribute 24, 1
   8              		.eabi_attribute 25, 1
   9              		.eabi_attribute 26, 1
  10              		.eabi_attribute 30, 1
  11              		.eabi_attribute 34, 0
  12              		.eabi_attribute 18, 4
  13              		.file	"stm32g0xx_hal_exti.c"
  14              		.text
  15              	.Ltext0:
  16              		.cfi_sections	.debug_frame
  17              		.section	.text.HAL_EXTI_SetConfigLine,"ax",%progbits
  18              		.align	1
  19              		.global	HAL_EXTI_SetConfigLine
  20              		.syntax unified
  21              		.code	16
  22              		.thumb_func
  24              	HAL_EXTI_SetConfigLine:
  25              	.LVL0:
  26              	.LFB310:
  27              		.file 1 "Drivers/STM32G0xx_HAL_Driver/Src/stm32g0xx_hal_exti.c"
   1:Drivers/STM32G0xx_HAL_Driver/Src/stm32g0xx_hal_exti.c **** /**
   2:Drivers/STM32G0xx_HAL_Driver/Src/stm32g0xx_hal_exti.c ****   ******************************************************************************
   3:Drivers/STM32G0xx_HAL_Driver/Src/stm32g0xx_hal_exti.c ****   * @file    stm32g0xx_hal_exti.c
   4:Drivers/STM32G0xx_HAL_Driver/Src/stm32g0xx_hal_exti.c ****   * @author  MCD Application Team
   5:Drivers/STM32G0xx_HAL_Driver/Src/stm32g0xx_hal_exti.c ****   * @brief   EXTI HAL module driver.
   6:Drivers/STM32G0xx_HAL_Driver/Src/stm32g0xx_hal_exti.c ****   *          This file provides firmware functions to manage the following
   7:Drivers/STM32G0xx_HAL_Driver/Src/stm32g0xx_hal_exti.c ****   *          functionalities of the General Purpose Input/Output (EXTI) peripheral:
   8:Drivers/STM32G0xx_HAL_Driver/Src/stm32g0xx_hal_exti.c ****   *           + Initialization and de-initialization functions
   9:Drivers/STM32G0xx_HAL_Driver/Src/stm32g0xx_hal_exti.c ****   *           + IO operation functions
  10:Drivers/STM32G0xx_HAL_Driver/Src/stm32g0xx_hal_exti.c ****   *
  11:Drivers/STM32G0xx_HAL_Driver/Src/stm32g0xx_hal_exti.c ****   ******************************************************************************
  12:Drivers/STM32G0xx_HAL_Driver/Src/stm32g0xx_hal_exti.c ****   * @attention
  13:Drivers/STM32G0xx_HAL_Driver/Src/stm32g0xx_hal_exti.c ****   *
  14:Drivers/STM32G0xx_HAL_Driver/Src/stm32g0xx_hal_exti.c ****   * Copyright (c) 2018 STMicroelectronics.
  15:Drivers/STM32G0xx_HAL_Driver/Src/stm32g0xx_hal_exti.c ****   * All rights reserved.
  16:Drivers/STM32G0xx_HAL_Driver/Src/stm32g0xx_hal_exti.c ****   *
  17:Drivers/STM32G0xx_HAL_Driver/Src/stm32g0xx_hal_exti.c ****   * This software is licensed under terms that can be found in the LICENSE file
  18:Drivers/STM32G0xx_HAL_Driver/Src/stm32g0xx_hal_exti.c ****   * in the root directory of this software component.
  19:Drivers/STM32G0xx_HAL_Driver/Src/stm32g0xx_hal_exti.c ****   * If no LICENSE file comes with this software, it is provided AS-IS.
  20:Drivers/STM32G0xx_HAL_Driver/Src/stm32g0xx_hal_exti.c ****   *
  21:Drivers/STM32G0xx_HAL_Driver/Src/stm32g0xx_hal_exti.c ****   ******************************************************************************
  22:Drivers/STM32G0xx_HAL_Driver/Src/stm32g0xx_hal_exti.c ****   @verbatim
  23:Drivers/STM32G0xx_HAL_Driver/Src/stm32g0xx_hal_exti.c ****   ==============================================================================
  24:Drivers/STM32G0xx_HAL_Driver/Src/stm32g0xx_hal_exti.c ****                     ##### EXTI Peripheral features #####
  25:Drivers/STM32G0xx_HAL_Driver/Src/stm32g0xx_hal_exti.c ****   ==============================================================================
  26:Drivers/STM32G0xx_HAL_Driver/Src/stm32g0xx_hal_exti.c ****   [..]
  27:Drivers/STM32G0xx_HAL_Driver/Src/stm32g0xx_hal_exti.c ****     (+) Each Exti line can be configured within this driver.
  28:Drivers/STM32G0xx_HAL_Driver/Src/stm32g0xx_hal_exti.c **** 
  29:Drivers/STM32G0xx_HAL_Driver/Src/stm32g0xx_hal_exti.c ****     (+) Exti line can be configured in 3 different modes
  30:Drivers/STM32G0xx_HAL_Driver/Src/stm32g0xx_hal_exti.c ****         (++) Interrupt
  31:Drivers/STM32G0xx_HAL_Driver/Src/stm32g0xx_hal_exti.c ****         (++) Event
ARM GAS  C:\Users\tugru\AppData\Local\Temp\cc2Qf47L.s 			page 2


  32:Drivers/STM32G0xx_HAL_Driver/Src/stm32g0xx_hal_exti.c ****         (++) Both of them
  33:Drivers/STM32G0xx_HAL_Driver/Src/stm32g0xx_hal_exti.c **** 
  34:Drivers/STM32G0xx_HAL_Driver/Src/stm32g0xx_hal_exti.c ****     (+) Configurable Exti lines can be configured with 3 different triggers
  35:Drivers/STM32G0xx_HAL_Driver/Src/stm32g0xx_hal_exti.c ****         (++) Rising
  36:Drivers/STM32G0xx_HAL_Driver/Src/stm32g0xx_hal_exti.c ****         (++) Falling
  37:Drivers/STM32G0xx_HAL_Driver/Src/stm32g0xx_hal_exti.c ****         (++) Both of them
  38:Drivers/STM32G0xx_HAL_Driver/Src/stm32g0xx_hal_exti.c **** 
  39:Drivers/STM32G0xx_HAL_Driver/Src/stm32g0xx_hal_exti.c ****     (+) When set in interrupt mode, configurable Exti lines have two diffenrents
  40:Drivers/STM32G0xx_HAL_Driver/Src/stm32g0xx_hal_exti.c ****         interrupt pending registers which allow to distinguish which transition
  41:Drivers/STM32G0xx_HAL_Driver/Src/stm32g0xx_hal_exti.c ****         occurs:
  42:Drivers/STM32G0xx_HAL_Driver/Src/stm32g0xx_hal_exti.c ****         (++) Rising edge pending interrupt
  43:Drivers/STM32G0xx_HAL_Driver/Src/stm32g0xx_hal_exti.c ****         (++) Falling
  44:Drivers/STM32G0xx_HAL_Driver/Src/stm32g0xx_hal_exti.c **** 
  45:Drivers/STM32G0xx_HAL_Driver/Src/stm32g0xx_hal_exti.c ****     (+) Exti lines 0 to 15 are linked to gpio pin number 0 to 15. Gpio port can
  46:Drivers/STM32G0xx_HAL_Driver/Src/stm32g0xx_hal_exti.c ****         be selected through multiplexer.
  47:Drivers/STM32G0xx_HAL_Driver/Src/stm32g0xx_hal_exti.c **** 
  48:Drivers/STM32G0xx_HAL_Driver/Src/stm32g0xx_hal_exti.c ****                      ##### How to use this driver #####
  49:Drivers/STM32G0xx_HAL_Driver/Src/stm32g0xx_hal_exti.c ****   ==============================================================================
  50:Drivers/STM32G0xx_HAL_Driver/Src/stm32g0xx_hal_exti.c ****   [..]
  51:Drivers/STM32G0xx_HAL_Driver/Src/stm32g0xx_hal_exti.c **** 
  52:Drivers/STM32G0xx_HAL_Driver/Src/stm32g0xx_hal_exti.c ****     (#) Configure the EXTI line using HAL_EXTI_SetConfigLine().
  53:Drivers/STM32G0xx_HAL_Driver/Src/stm32g0xx_hal_exti.c ****         (++) Choose the interrupt line number by setting "Line" member from
  54:Drivers/STM32G0xx_HAL_Driver/Src/stm32g0xx_hal_exti.c ****              EXTI_ConfigTypeDef structure.
  55:Drivers/STM32G0xx_HAL_Driver/Src/stm32g0xx_hal_exti.c ****         (++) Configure the interrupt and/or event mode using "Mode" member from
  56:Drivers/STM32G0xx_HAL_Driver/Src/stm32g0xx_hal_exti.c ****              EXTI_ConfigTypeDef structure.
  57:Drivers/STM32G0xx_HAL_Driver/Src/stm32g0xx_hal_exti.c ****         (++) For configurable lines, configure rising and/or falling trigger
  58:Drivers/STM32G0xx_HAL_Driver/Src/stm32g0xx_hal_exti.c ****              "Trigger" member from EXTI_ConfigTypeDef structure.
  59:Drivers/STM32G0xx_HAL_Driver/Src/stm32g0xx_hal_exti.c ****         (++) For Exti lines linked to gpio, choose gpio port using "GPIOSel"
  60:Drivers/STM32G0xx_HAL_Driver/Src/stm32g0xx_hal_exti.c ****              member from GPIO_InitTypeDef structure.
  61:Drivers/STM32G0xx_HAL_Driver/Src/stm32g0xx_hal_exti.c **** 
  62:Drivers/STM32G0xx_HAL_Driver/Src/stm32g0xx_hal_exti.c ****     (#) Get current Exti configuration of a dedicated line using
  63:Drivers/STM32G0xx_HAL_Driver/Src/stm32g0xx_hal_exti.c ****         HAL_EXTI_GetConfigLine().
  64:Drivers/STM32G0xx_HAL_Driver/Src/stm32g0xx_hal_exti.c ****         (++) Provide exiting handle as parameter.
  65:Drivers/STM32G0xx_HAL_Driver/Src/stm32g0xx_hal_exti.c ****         (++) Provide pointer on EXTI_ConfigTypeDef structure as second parameter.
  66:Drivers/STM32G0xx_HAL_Driver/Src/stm32g0xx_hal_exti.c **** 
  67:Drivers/STM32G0xx_HAL_Driver/Src/stm32g0xx_hal_exti.c ****     (#) Clear Exti configuration of a dedicated line using HAL_EXTI_ClearConfigLine().
  68:Drivers/STM32G0xx_HAL_Driver/Src/stm32g0xx_hal_exti.c ****         (++) Provide exiting handle as parameter.
  69:Drivers/STM32G0xx_HAL_Driver/Src/stm32g0xx_hal_exti.c **** 
  70:Drivers/STM32G0xx_HAL_Driver/Src/stm32g0xx_hal_exti.c ****     (#) Register callback to treat Exti interrupts using HAL_EXTI_RegisterCallback().
  71:Drivers/STM32G0xx_HAL_Driver/Src/stm32g0xx_hal_exti.c ****         (++) Provide exiting handle as first parameter.
  72:Drivers/STM32G0xx_HAL_Driver/Src/stm32g0xx_hal_exti.c ****         (++) Provide which callback will be registered using one value from
  73:Drivers/STM32G0xx_HAL_Driver/Src/stm32g0xx_hal_exti.c ****              EXTI_CallbackIDTypeDef.
  74:Drivers/STM32G0xx_HAL_Driver/Src/stm32g0xx_hal_exti.c ****         (++) Provide callback function pointer.
  75:Drivers/STM32G0xx_HAL_Driver/Src/stm32g0xx_hal_exti.c **** 
  76:Drivers/STM32G0xx_HAL_Driver/Src/stm32g0xx_hal_exti.c ****     (#) Get interrupt pending bit using HAL_EXTI_GetPending().
  77:Drivers/STM32G0xx_HAL_Driver/Src/stm32g0xx_hal_exti.c **** 
  78:Drivers/STM32G0xx_HAL_Driver/Src/stm32g0xx_hal_exti.c ****     (#) Clear interrupt pending bit using HAL_EXTI_ClearPending().
  79:Drivers/STM32G0xx_HAL_Driver/Src/stm32g0xx_hal_exti.c **** 
  80:Drivers/STM32G0xx_HAL_Driver/Src/stm32g0xx_hal_exti.c ****     (#) Generate software interrupt using HAL_EXTI_GenerateSWI().
  81:Drivers/STM32G0xx_HAL_Driver/Src/stm32g0xx_hal_exti.c **** 
  82:Drivers/STM32G0xx_HAL_Driver/Src/stm32g0xx_hal_exti.c ****   @endverbatim
  83:Drivers/STM32G0xx_HAL_Driver/Src/stm32g0xx_hal_exti.c ****   */
  84:Drivers/STM32G0xx_HAL_Driver/Src/stm32g0xx_hal_exti.c **** 
  85:Drivers/STM32G0xx_HAL_Driver/Src/stm32g0xx_hal_exti.c **** /* Includes ------------------------------------------------------------------*/
  86:Drivers/STM32G0xx_HAL_Driver/Src/stm32g0xx_hal_exti.c **** #include "stm32g0xx_hal.h"
  87:Drivers/STM32G0xx_HAL_Driver/Src/stm32g0xx_hal_exti.c **** 
  88:Drivers/STM32G0xx_HAL_Driver/Src/stm32g0xx_hal_exti.c **** /** @addtogroup STM32G0xx_HAL_Driver
ARM GAS  C:\Users\tugru\AppData\Local\Temp\cc2Qf47L.s 			page 3


  89:Drivers/STM32G0xx_HAL_Driver/Src/stm32g0xx_hal_exti.c ****   * @{
  90:Drivers/STM32G0xx_HAL_Driver/Src/stm32g0xx_hal_exti.c ****   */
  91:Drivers/STM32G0xx_HAL_Driver/Src/stm32g0xx_hal_exti.c **** 
  92:Drivers/STM32G0xx_HAL_Driver/Src/stm32g0xx_hal_exti.c **** /** @addtogroup EXTI
  93:Drivers/STM32G0xx_HAL_Driver/Src/stm32g0xx_hal_exti.c ****   * @{
  94:Drivers/STM32G0xx_HAL_Driver/Src/stm32g0xx_hal_exti.c ****   */
  95:Drivers/STM32G0xx_HAL_Driver/Src/stm32g0xx_hal_exti.c **** /** MISRA C:2012 deviation rule has been granted for following rule:
  96:Drivers/STM32G0xx_HAL_Driver/Src/stm32g0xx_hal_exti.c ****   * Rule-18.1_b - Medium: Array `EXTICR' 1st subscript interval [0,7] may be out
  97:Drivers/STM32G0xx_HAL_Driver/Src/stm32g0xx_hal_exti.c ****   * of bounds [0,3] in following API :
  98:Drivers/STM32G0xx_HAL_Driver/Src/stm32g0xx_hal_exti.c ****   * HAL_EXTI_SetConfigLine
  99:Drivers/STM32G0xx_HAL_Driver/Src/stm32g0xx_hal_exti.c ****   * HAL_EXTI_GetConfigLine
 100:Drivers/STM32G0xx_HAL_Driver/Src/stm32g0xx_hal_exti.c ****   * HAL_EXTI_ClearConfigLine
 101:Drivers/STM32G0xx_HAL_Driver/Src/stm32g0xx_hal_exti.c ****   */
 102:Drivers/STM32G0xx_HAL_Driver/Src/stm32g0xx_hal_exti.c **** 
 103:Drivers/STM32G0xx_HAL_Driver/Src/stm32g0xx_hal_exti.c **** #ifdef HAL_EXTI_MODULE_ENABLED
 104:Drivers/STM32G0xx_HAL_Driver/Src/stm32g0xx_hal_exti.c **** 
 105:Drivers/STM32G0xx_HAL_Driver/Src/stm32g0xx_hal_exti.c **** /* Private typedef -----------------------------------------------------------*/
 106:Drivers/STM32G0xx_HAL_Driver/Src/stm32g0xx_hal_exti.c **** /* Private defines ------------------------------------------------------------*/
 107:Drivers/STM32G0xx_HAL_Driver/Src/stm32g0xx_hal_exti.c **** /** @defgroup EXTI_Private_Constants EXTI Private Constants
 108:Drivers/STM32G0xx_HAL_Driver/Src/stm32g0xx_hal_exti.c ****   * @{
 109:Drivers/STM32G0xx_HAL_Driver/Src/stm32g0xx_hal_exti.c ****   */
 110:Drivers/STM32G0xx_HAL_Driver/Src/stm32g0xx_hal_exti.c **** #define EXTI_MODE_OFFSET                    0x04u   /* 0x10: offset between CPU IMR/EMR registers *
 111:Drivers/STM32G0xx_HAL_Driver/Src/stm32g0xx_hal_exti.c **** #define EXTI_CONFIG_OFFSET                  0x08u   /* 0x20: offset between CPU Rising/Falling conf
 112:Drivers/STM32G0xx_HAL_Driver/Src/stm32g0xx_hal_exti.c **** /**
 113:Drivers/STM32G0xx_HAL_Driver/Src/stm32g0xx_hal_exti.c ****   * @}
 114:Drivers/STM32G0xx_HAL_Driver/Src/stm32g0xx_hal_exti.c ****   */
 115:Drivers/STM32G0xx_HAL_Driver/Src/stm32g0xx_hal_exti.c **** 
 116:Drivers/STM32G0xx_HAL_Driver/Src/stm32g0xx_hal_exti.c **** /* Private macros ------------------------------------------------------------*/
 117:Drivers/STM32G0xx_HAL_Driver/Src/stm32g0xx_hal_exti.c **** /* Private variables ---------------------------------------------------------*/
 118:Drivers/STM32G0xx_HAL_Driver/Src/stm32g0xx_hal_exti.c **** /* Private function prototypes -----------------------------------------------*/
 119:Drivers/STM32G0xx_HAL_Driver/Src/stm32g0xx_hal_exti.c **** /* Exported functions --------------------------------------------------------*/
 120:Drivers/STM32G0xx_HAL_Driver/Src/stm32g0xx_hal_exti.c **** 
 121:Drivers/STM32G0xx_HAL_Driver/Src/stm32g0xx_hal_exti.c **** /** @addtogroup EXTI_Exported_Functions
 122:Drivers/STM32G0xx_HAL_Driver/Src/stm32g0xx_hal_exti.c ****   * @{
 123:Drivers/STM32G0xx_HAL_Driver/Src/stm32g0xx_hal_exti.c ****   */
 124:Drivers/STM32G0xx_HAL_Driver/Src/stm32g0xx_hal_exti.c **** 
 125:Drivers/STM32G0xx_HAL_Driver/Src/stm32g0xx_hal_exti.c **** /** @addtogroup EXTI_Exported_Functions_Group1
 126:Drivers/STM32G0xx_HAL_Driver/Src/stm32g0xx_hal_exti.c ****  *  @brief    Configuration functions
 127:Drivers/STM32G0xx_HAL_Driver/Src/stm32g0xx_hal_exti.c ****  *
 128:Drivers/STM32G0xx_HAL_Driver/Src/stm32g0xx_hal_exti.c **** @verbatim
 129:Drivers/STM32G0xx_HAL_Driver/Src/stm32g0xx_hal_exti.c ****  ===============================================================================
 130:Drivers/STM32G0xx_HAL_Driver/Src/stm32g0xx_hal_exti.c ****               ##### Configuration functions #####
 131:Drivers/STM32G0xx_HAL_Driver/Src/stm32g0xx_hal_exti.c ****  ===============================================================================
 132:Drivers/STM32G0xx_HAL_Driver/Src/stm32g0xx_hal_exti.c **** 
 133:Drivers/STM32G0xx_HAL_Driver/Src/stm32g0xx_hal_exti.c **** @endverbatim
 134:Drivers/STM32G0xx_HAL_Driver/Src/stm32g0xx_hal_exti.c ****   * @{
 135:Drivers/STM32G0xx_HAL_Driver/Src/stm32g0xx_hal_exti.c ****   */
 136:Drivers/STM32G0xx_HAL_Driver/Src/stm32g0xx_hal_exti.c **** 
 137:Drivers/STM32G0xx_HAL_Driver/Src/stm32g0xx_hal_exti.c **** /**
 138:Drivers/STM32G0xx_HAL_Driver/Src/stm32g0xx_hal_exti.c ****   * @brief  Set configuration of a dedicated Exti line.
 139:Drivers/STM32G0xx_HAL_Driver/Src/stm32g0xx_hal_exti.c ****   * @param  hexti Exti handle.
 140:Drivers/STM32G0xx_HAL_Driver/Src/stm32g0xx_hal_exti.c ****   * @param  pExtiConfig Pointer on EXTI configuration to be set.
 141:Drivers/STM32G0xx_HAL_Driver/Src/stm32g0xx_hal_exti.c ****   * @retval HAL Status.
 142:Drivers/STM32G0xx_HAL_Driver/Src/stm32g0xx_hal_exti.c ****   */
 143:Drivers/STM32G0xx_HAL_Driver/Src/stm32g0xx_hal_exti.c **** HAL_StatusTypeDef HAL_EXTI_SetConfigLine(EXTI_HandleTypeDef *hexti, EXTI_ConfigTypeDef *pExtiConfig
 144:Drivers/STM32G0xx_HAL_Driver/Src/stm32g0xx_hal_exti.c **** {
  28              		.loc 1 144 1 view -0
ARM GAS  C:\Users\tugru\AppData\Local\Temp\cc2Qf47L.s 			page 4


  29              		.cfi_startproc
  30              		@ args = 0, pretend = 0, frame = 0
  31              		@ frame_needed = 0, uses_anonymous_args = 0
  32              		.loc 1 144 1 is_stmt 0 view .LVU1
  33 0000 F0B5     		push	{r4, r5, r6, r7, lr}
  34              	.LCFI0:
  35              		.cfi_def_cfa_offset 20
  36              		.cfi_offset 4, -20
  37              		.cfi_offset 5, -16
  38              		.cfi_offset 6, -12
  39              		.cfi_offset 7, -8
  40              		.cfi_offset 14, -4
 145:Drivers/STM32G0xx_HAL_Driver/Src/stm32g0xx_hal_exti.c ****   __IO uint32_t *regaddr;
  41              		.loc 1 145 3 is_stmt 1 view .LVU2
 146:Drivers/STM32G0xx_HAL_Driver/Src/stm32g0xx_hal_exti.c ****   uint32_t regval;
  42              		.loc 1 146 3 view .LVU3
 147:Drivers/STM32G0xx_HAL_Driver/Src/stm32g0xx_hal_exti.c ****   uint32_t linepos;
  43              		.loc 1 147 3 view .LVU4
 148:Drivers/STM32G0xx_HAL_Driver/Src/stm32g0xx_hal_exti.c ****   uint32_t maskline;
  44              		.loc 1 148 3 view .LVU5
 149:Drivers/STM32G0xx_HAL_Driver/Src/stm32g0xx_hal_exti.c ****   uint32_t offset;
  45              		.loc 1 149 3 view .LVU6
 150:Drivers/STM32G0xx_HAL_Driver/Src/stm32g0xx_hal_exti.c **** 
 151:Drivers/STM32G0xx_HAL_Driver/Src/stm32g0xx_hal_exti.c ****   /* Check null pointer */
 152:Drivers/STM32G0xx_HAL_Driver/Src/stm32g0xx_hal_exti.c ****   if ((hexti == NULL) || (pExtiConfig == NULL))
  46              		.loc 1 152 3 view .LVU7
  47              		.loc 1 152 6 is_stmt 0 view .LVU8
  48 0002 0028     		cmp	r0, #0
  49 0004 52D0     		beq	.L12
  50              		.loc 1 152 23 discriminator 1 view .LVU9
  51 0006 0029     		cmp	r1, #0
  52 0008 52D0     		beq	.L13
 153:Drivers/STM32G0xx_HAL_Driver/Src/stm32g0xx_hal_exti.c ****   {
 154:Drivers/STM32G0xx_HAL_Driver/Src/stm32g0xx_hal_exti.c ****     return HAL_ERROR;
 155:Drivers/STM32G0xx_HAL_Driver/Src/stm32g0xx_hal_exti.c ****   }
 156:Drivers/STM32G0xx_HAL_Driver/Src/stm32g0xx_hal_exti.c **** 
 157:Drivers/STM32G0xx_HAL_Driver/Src/stm32g0xx_hal_exti.c ****   /* Check parameters */
 158:Drivers/STM32G0xx_HAL_Driver/Src/stm32g0xx_hal_exti.c ****   assert_param(IS_EXTI_LINE(pExtiConfig->Line));
  53              		.loc 1 158 3 is_stmt 1 view .LVU10
 159:Drivers/STM32G0xx_HAL_Driver/Src/stm32g0xx_hal_exti.c ****   assert_param(IS_EXTI_MODE(pExtiConfig->Mode));
  54              		.loc 1 159 3 view .LVU11
 160:Drivers/STM32G0xx_HAL_Driver/Src/stm32g0xx_hal_exti.c **** 
 161:Drivers/STM32G0xx_HAL_Driver/Src/stm32g0xx_hal_exti.c ****   /* Assign line number to handle */
 162:Drivers/STM32G0xx_HAL_Driver/Src/stm32g0xx_hal_exti.c ****   hexti->Line = pExtiConfig->Line;
  55              		.loc 1 162 3 view .LVU12
  56              		.loc 1 162 28 is_stmt 0 view .LVU13
  57 000a 0D68     		ldr	r5, [r1]
  58              		.loc 1 162 15 view .LVU14
  59 000c 0560     		str	r5, [r0]
 163:Drivers/STM32G0xx_HAL_Driver/Src/stm32g0xx_hal_exti.c **** 
 164:Drivers/STM32G0xx_HAL_Driver/Src/stm32g0xx_hal_exti.c ****   /* compute line register offset and line mask */
 165:Drivers/STM32G0xx_HAL_Driver/Src/stm32g0xx_hal_exti.c ****   offset = ((pExtiConfig->Line & EXTI_REG_MASK) >> EXTI_REG_SHIFT);
  60              		.loc 1 165 3 is_stmt 1 view .LVU15
  61              		.loc 1 165 49 is_stmt 0 view .LVU16
  62 000e 2B0C     		lsrs	r3, r5, #16
  63              		.loc 1 165 10 view .LVU17
  64 0010 0122     		movs	r2, #1
ARM GAS  C:\Users\tugru\AppData\Local\Temp\cc2Qf47L.s 			page 5


  65 0012 1340     		ands	r3, r2
  66              	.LVL1:
 166:Drivers/STM32G0xx_HAL_Driver/Src/stm32g0xx_hal_exti.c ****   linepos = (pExtiConfig->Line & EXTI_PIN_MASK);
  67              		.loc 1 166 3 is_stmt 1 view .LVU18
  68              		.loc 1 166 11 is_stmt 0 view .LVU19
  69 0014 1F20     		movs	r0, #31
  70              	.LVL2:
  71              		.loc 1 166 11 view .LVU20
  72 0016 2840     		ands	r0, r5
  73              	.LVL3:
 167:Drivers/STM32G0xx_HAL_Driver/Src/stm32g0xx_hal_exti.c ****   maskline = (1uL << linepos);
  74              		.loc 1 167 3 is_stmt 1 view .LVU21
  75              		.loc 1 167 12 is_stmt 0 view .LVU22
  76 0018 8240     		lsls	r2, r2, r0
  77              	.LVL4:
 168:Drivers/STM32G0xx_HAL_Driver/Src/stm32g0xx_hal_exti.c **** 
 169:Drivers/STM32G0xx_HAL_Driver/Src/stm32g0xx_hal_exti.c ****   /* Configure triggers for configurable lines */
 170:Drivers/STM32G0xx_HAL_Driver/Src/stm32g0xx_hal_exti.c ****   if ((pExtiConfig->Line & EXTI_CONFIG) != 0x00u)
  78              		.loc 1 170 3 is_stmt 1 view .LVU23
  79              		.loc 1 170 6 is_stmt 0 view .LVU24
  80 001a AC01     		lsls	r4, r5, #6
  81 001c 19D5     		bpl	.L3
 171:Drivers/STM32G0xx_HAL_Driver/Src/stm32g0xx_hal_exti.c ****   {
 172:Drivers/STM32G0xx_HAL_Driver/Src/stm32g0xx_hal_exti.c ****     assert_param(IS_EXTI_TRIGGER(pExtiConfig->Trigger));
  82              		.loc 1 172 5 is_stmt 1 view .LVU25
 173:Drivers/STM32G0xx_HAL_Driver/Src/stm32g0xx_hal_exti.c **** 
 174:Drivers/STM32G0xx_HAL_Driver/Src/stm32g0xx_hal_exti.c ****     /* Configure rising trigger */
 175:Drivers/STM32G0xx_HAL_Driver/Src/stm32g0xx_hal_exti.c ****     regaddr = (&EXTI->RTSR1 + (EXTI_CONFIG_OFFSET * offset));
  83              		.loc 1 175 5 view .LVU26
  84              		.loc 1 175 29 is_stmt 0 view .LVU27
  85 001e 5C01     		lsls	r4, r3, #5
  86              		.loc 1 175 13 view .LVU28
  87 0020 244E     		ldr	r6, .L15
  88 0022 A719     		adds	r7, r4, r6
  89              	.LVL5:
 176:Drivers/STM32G0xx_HAL_Driver/Src/stm32g0xx_hal_exti.c ****     regval = *regaddr;
  90              		.loc 1 176 5 is_stmt 1 view .LVU29
  91              		.loc 1 176 12 is_stmt 0 view .LVU30
  92 0024 3E68     		ldr	r6, [r7]
  93 0026 B446     		mov	ip, r6
  94              	.LVL6:
 177:Drivers/STM32G0xx_HAL_Driver/Src/stm32g0xx_hal_exti.c **** 
 178:Drivers/STM32G0xx_HAL_Driver/Src/stm32g0xx_hal_exti.c ****     /* Mask or set line */
 179:Drivers/STM32G0xx_HAL_Driver/Src/stm32g0xx_hal_exti.c ****     if ((pExtiConfig->Trigger & EXTI_TRIGGER_RISING) != 0x00u)
  95              		.loc 1 179 5 is_stmt 1 view .LVU31
  96              		.loc 1 179 8 is_stmt 0 view .LVU32
  97 0028 8E68     		ldr	r6, [r1, #8]
  98              	.LVL7:
  99              		.loc 1 179 8 view .LVU33
 100 002a F607     		lsls	r6, r6, #31
 101 002c 25D5     		bpl	.L4
 180:Drivers/STM32G0xx_HAL_Driver/Src/stm32g0xx_hal_exti.c ****     {
 181:Drivers/STM32G0xx_HAL_Driver/Src/stm32g0xx_hal_exti.c ****       regval |= maskline;
 102              		.loc 1 181 7 is_stmt 1 view .LVU34
 103              		.loc 1 181 14 is_stmt 0 view .LVU35
 104 002e 6646     		mov	r6, ip
 105 0030 1643     		orrs	r6, r2
ARM GAS  C:\Users\tugru\AppData\Local\Temp\cc2Qf47L.s 			page 6


 106              	.LVL8:
 107              	.L5:
 182:Drivers/STM32G0xx_HAL_Driver/Src/stm32g0xx_hal_exti.c ****     }
 183:Drivers/STM32G0xx_HAL_Driver/Src/stm32g0xx_hal_exti.c ****     else
 184:Drivers/STM32G0xx_HAL_Driver/Src/stm32g0xx_hal_exti.c ****     {
 185:Drivers/STM32G0xx_HAL_Driver/Src/stm32g0xx_hal_exti.c ****       regval &= ~maskline;
 186:Drivers/STM32G0xx_HAL_Driver/Src/stm32g0xx_hal_exti.c ****     }
 187:Drivers/STM32G0xx_HAL_Driver/Src/stm32g0xx_hal_exti.c **** 
 188:Drivers/STM32G0xx_HAL_Driver/Src/stm32g0xx_hal_exti.c ****     /* Store rising trigger mode */
 189:Drivers/STM32G0xx_HAL_Driver/Src/stm32g0xx_hal_exti.c ****     *regaddr = regval;
 108              		.loc 1 189 5 is_stmt 1 view .LVU36
 109              		.loc 1 189 14 is_stmt 0 view .LVU37
 110 0032 3E60     		str	r6, [r7]
 190:Drivers/STM32G0xx_HAL_Driver/Src/stm32g0xx_hal_exti.c **** 
 191:Drivers/STM32G0xx_HAL_Driver/Src/stm32g0xx_hal_exti.c ****     /* Configure falling trigger */
 192:Drivers/STM32G0xx_HAL_Driver/Src/stm32g0xx_hal_exti.c ****     regaddr = (&EXTI->FTSR1 + (EXTI_CONFIG_OFFSET * offset));
 111              		.loc 1 192 5 is_stmt 1 view .LVU38
 112              		.loc 1 192 13 is_stmt 0 view .LVU39
 113 0034 204E     		ldr	r6, .L15+4
 114              	.LVL9:
 115              		.loc 1 192 13 view .LVU40
 116 0036 B446     		mov	ip, r6
 117 0038 6444     		add	r4, r4, ip
 118              	.LVL10:
 193:Drivers/STM32G0xx_HAL_Driver/Src/stm32g0xx_hal_exti.c ****     regval = *regaddr;
 119              		.loc 1 193 5 is_stmt 1 view .LVU41
 120              		.loc 1 193 12 is_stmt 0 view .LVU42
 121 003a 2668     		ldr	r6, [r4]
 122              	.LVL11:
 194:Drivers/STM32G0xx_HAL_Driver/Src/stm32g0xx_hal_exti.c **** 
 195:Drivers/STM32G0xx_HAL_Driver/Src/stm32g0xx_hal_exti.c ****     /* Mask or set line */
 196:Drivers/STM32G0xx_HAL_Driver/Src/stm32g0xx_hal_exti.c ****     if ((pExtiConfig->Trigger & EXTI_TRIGGER_FALLING) != 0x00u)
 123              		.loc 1 196 5 is_stmt 1 view .LVU43
 124              		.loc 1 196 8 is_stmt 0 view .LVU44
 125 003c 8F68     		ldr	r7, [r1, #8]
 126 003e BF07     		lsls	r7, r7, #30
 127 0040 1ED5     		bpl	.L6
 197:Drivers/STM32G0xx_HAL_Driver/Src/stm32g0xx_hal_exti.c ****     {
 198:Drivers/STM32G0xx_HAL_Driver/Src/stm32g0xx_hal_exti.c ****       regval |= maskline;
 128              		.loc 1 198 7 is_stmt 1 view .LVU45
 129              		.loc 1 198 14 is_stmt 0 view .LVU46
 130 0042 1643     		orrs	r6, r2
 131              	.LVL12:
 132              	.L7:
 199:Drivers/STM32G0xx_HAL_Driver/Src/stm32g0xx_hal_exti.c ****     }
 200:Drivers/STM32G0xx_HAL_Driver/Src/stm32g0xx_hal_exti.c ****     else
 201:Drivers/STM32G0xx_HAL_Driver/Src/stm32g0xx_hal_exti.c ****     {
 202:Drivers/STM32G0xx_HAL_Driver/Src/stm32g0xx_hal_exti.c ****       regval &= ~maskline;
 203:Drivers/STM32G0xx_HAL_Driver/Src/stm32g0xx_hal_exti.c ****     }
 204:Drivers/STM32G0xx_HAL_Driver/Src/stm32g0xx_hal_exti.c **** 
 205:Drivers/STM32G0xx_HAL_Driver/Src/stm32g0xx_hal_exti.c ****     /* Store falling trigger mode */
 206:Drivers/STM32G0xx_HAL_Driver/Src/stm32g0xx_hal_exti.c ****     *regaddr = regval;
 133              		.loc 1 206 5 is_stmt 1 view .LVU47
 134              		.loc 1 206 14 is_stmt 0 view .LVU48
 135 0044 2660     		str	r6, [r4]
 207:Drivers/STM32G0xx_HAL_Driver/Src/stm32g0xx_hal_exti.c **** 
 208:Drivers/STM32G0xx_HAL_Driver/Src/stm32g0xx_hal_exti.c ****     /* Configure gpio port selection in case of gpio exti line */
ARM GAS  C:\Users\tugru\AppData\Local\Temp\cc2Qf47L.s 			page 7


 209:Drivers/STM32G0xx_HAL_Driver/Src/stm32g0xx_hal_exti.c ****     if ((pExtiConfig->Line & EXTI_GPIO) == EXTI_GPIO)
 136              		.loc 1 209 5 is_stmt 1 view .LVU49
 137              		.loc 1 209 28 is_stmt 0 view .LVU50
 138 0046 C026     		movs	r6, #192
 139              	.LVL13:
 140              		.loc 1 209 28 view .LVU51
 141 0048 F604     		lsls	r6, r6, #19
 142 004a 0C68     		ldr	r4, [r1]
 143              	.LVL14:
 144              		.loc 1 209 28 view .LVU52
 145 004c 3440     		ands	r4, r6
 146              		.loc 1 209 8 view .LVU53
 147 004e B442     		cmp	r4, r6
 148 0050 18D0     		beq	.L14
 149              	.LVL15:
 150              	.L3:
 210:Drivers/STM32G0xx_HAL_Driver/Src/stm32g0xx_hal_exti.c ****     {
 211:Drivers/STM32G0xx_HAL_Driver/Src/stm32g0xx_hal_exti.c ****       assert_param(IS_EXTI_GPIO_PORT(pExtiConfig->GPIOSel));
 212:Drivers/STM32G0xx_HAL_Driver/Src/stm32g0xx_hal_exti.c ****       assert_param(IS_EXTI_GPIO_PIN(linepos));
 213:Drivers/STM32G0xx_HAL_Driver/Src/stm32g0xx_hal_exti.c **** 
 214:Drivers/STM32G0xx_HAL_Driver/Src/stm32g0xx_hal_exti.c ****       regval = EXTI->EXTICR[linepos >> 2u];
 215:Drivers/STM32G0xx_HAL_Driver/Src/stm32g0xx_hal_exti.c ****       regval &= ~(EXTI_EXTICR1_EXTI0 << (EXTI_EXTICR1_EXTI1_Pos * (linepos & 0x03u)));
 216:Drivers/STM32G0xx_HAL_Driver/Src/stm32g0xx_hal_exti.c ****       regval |= (pExtiConfig->GPIOSel << (EXTI_EXTICR1_EXTI1_Pos * (linepos & 0x03u)));
 217:Drivers/STM32G0xx_HAL_Driver/Src/stm32g0xx_hal_exti.c ****       EXTI->EXTICR[linepos >> 2u] = regval;
 218:Drivers/STM32G0xx_HAL_Driver/Src/stm32g0xx_hal_exti.c ****     }
 219:Drivers/STM32G0xx_HAL_Driver/Src/stm32g0xx_hal_exti.c ****   }
 220:Drivers/STM32G0xx_HAL_Driver/Src/stm32g0xx_hal_exti.c **** 
 221:Drivers/STM32G0xx_HAL_Driver/Src/stm32g0xx_hal_exti.c ****   /* Configure interrupt mode : read current mode */
 222:Drivers/STM32G0xx_HAL_Driver/Src/stm32g0xx_hal_exti.c ****   regaddr = (&EXTI->IMR1 + (EXTI_MODE_OFFSET * offset));
 151              		.loc 1 222 3 is_stmt 1 view .LVU54
 152              		.loc 1 222 26 is_stmt 0 view .LVU55
 153 0052 1B01     		lsls	r3, r3, #4
 154              	.LVL16:
 155              		.loc 1 222 11 view .LVU56
 156 0054 1948     		ldr	r0, .L15+8
 157 0056 1C18     		adds	r4, r3, r0
 158              	.LVL17:
 223:Drivers/STM32G0xx_HAL_Driver/Src/stm32g0xx_hal_exti.c ****   regval = *regaddr;
 159              		.loc 1 223 3 is_stmt 1 view .LVU57
 160              		.loc 1 223 10 is_stmt 0 view .LVU58
 161 0058 2068     		ldr	r0, [r4]
 162              	.LVL18:
 224:Drivers/STM32G0xx_HAL_Driver/Src/stm32g0xx_hal_exti.c **** 
 225:Drivers/STM32G0xx_HAL_Driver/Src/stm32g0xx_hal_exti.c ****   /* Mask or set line */
 226:Drivers/STM32G0xx_HAL_Driver/Src/stm32g0xx_hal_exti.c ****   if ((pExtiConfig->Mode & EXTI_MODE_INTERRUPT) != 0x00u)
 163              		.loc 1 226 3 is_stmt 1 view .LVU59
 164              		.loc 1 226 6 is_stmt 0 view .LVU60
 165 005a 4D68     		ldr	r5, [r1, #4]
 166 005c ED07     		lsls	r5, r5, #31
 167 005e 21D5     		bpl	.L8
 227:Drivers/STM32G0xx_HAL_Driver/Src/stm32g0xx_hal_exti.c ****   {
 228:Drivers/STM32G0xx_HAL_Driver/Src/stm32g0xx_hal_exti.c ****     regval |= maskline;
 168              		.loc 1 228 5 is_stmt 1 view .LVU61
 169              		.loc 1 228 12 is_stmt 0 view .LVU62
 170 0060 1043     		orrs	r0, r2
 171              	.LVL19:
 172              	.L9:
ARM GAS  C:\Users\tugru\AppData\Local\Temp\cc2Qf47L.s 			page 8


 229:Drivers/STM32G0xx_HAL_Driver/Src/stm32g0xx_hal_exti.c ****   }
 230:Drivers/STM32G0xx_HAL_Driver/Src/stm32g0xx_hal_exti.c ****   else
 231:Drivers/STM32G0xx_HAL_Driver/Src/stm32g0xx_hal_exti.c ****   {
 232:Drivers/STM32G0xx_HAL_Driver/Src/stm32g0xx_hal_exti.c ****     regval &= ~maskline;
 233:Drivers/STM32G0xx_HAL_Driver/Src/stm32g0xx_hal_exti.c ****   }
 234:Drivers/STM32G0xx_HAL_Driver/Src/stm32g0xx_hal_exti.c **** 
 235:Drivers/STM32G0xx_HAL_Driver/Src/stm32g0xx_hal_exti.c ****   /* Store interrupt mode */
 236:Drivers/STM32G0xx_HAL_Driver/Src/stm32g0xx_hal_exti.c ****   *regaddr = regval;
 173              		.loc 1 236 3 is_stmt 1 view .LVU63
 174              		.loc 1 236 12 is_stmt 0 view .LVU64
 175 0062 2060     		str	r0, [r4]
 237:Drivers/STM32G0xx_HAL_Driver/Src/stm32g0xx_hal_exti.c **** 
 238:Drivers/STM32G0xx_HAL_Driver/Src/stm32g0xx_hal_exti.c ****   /* Configure event mode : read current mode */
 239:Drivers/STM32G0xx_HAL_Driver/Src/stm32g0xx_hal_exti.c ****   regaddr = (&EXTI->EMR1 + (EXTI_MODE_OFFSET * offset));
 176              		.loc 1 239 3 is_stmt 1 view .LVU65
 177              		.loc 1 239 11 is_stmt 0 view .LVU66
 178 0064 1648     		ldr	r0, .L15+12
 179              	.LVL20:
 180              		.loc 1 239 11 view .LVU67
 181 0066 8446     		mov	ip, r0
 182 0068 6344     		add	r3, r3, ip
 183              	.LVL21:
 240:Drivers/STM32G0xx_HAL_Driver/Src/stm32g0xx_hal_exti.c ****   regval = *regaddr;
 184              		.loc 1 240 3 is_stmt 1 view .LVU68
 185              		.loc 1 240 10 is_stmt 0 view .LVU69
 186 006a 1868     		ldr	r0, [r3]
 187              	.LVL22:
 241:Drivers/STM32G0xx_HAL_Driver/Src/stm32g0xx_hal_exti.c **** 
 242:Drivers/STM32G0xx_HAL_Driver/Src/stm32g0xx_hal_exti.c ****   /* Mask or set line */
 243:Drivers/STM32G0xx_HAL_Driver/Src/stm32g0xx_hal_exti.c ****   if ((pExtiConfig->Mode & EXTI_MODE_EVENT) != 0x00u)
 188              		.loc 1 243 3 is_stmt 1 view .LVU70
 189              		.loc 1 243 19 is_stmt 0 view .LVU71
 190 006c 4968     		ldr	r1, [r1, #4]
 191              	.LVL23:
 192              		.loc 1 243 6 view .LVU72
 193 006e 8907     		lsls	r1, r1, #30
 194 0070 1AD5     		bpl	.L10
 244:Drivers/STM32G0xx_HAL_Driver/Src/stm32g0xx_hal_exti.c ****   {
 245:Drivers/STM32G0xx_HAL_Driver/Src/stm32g0xx_hal_exti.c ****     regval |= maskline;
 195              		.loc 1 245 5 is_stmt 1 view .LVU73
 196              		.loc 1 245 12 is_stmt 0 view .LVU74
 197 0072 1043     		orrs	r0, r2
 198              	.LVL24:
 199              	.L11:
 246:Drivers/STM32G0xx_HAL_Driver/Src/stm32g0xx_hal_exti.c ****   }
 247:Drivers/STM32G0xx_HAL_Driver/Src/stm32g0xx_hal_exti.c ****   else
 248:Drivers/STM32G0xx_HAL_Driver/Src/stm32g0xx_hal_exti.c ****   {
 249:Drivers/STM32G0xx_HAL_Driver/Src/stm32g0xx_hal_exti.c ****     regval &= ~maskline;
 250:Drivers/STM32G0xx_HAL_Driver/Src/stm32g0xx_hal_exti.c ****   }
 251:Drivers/STM32G0xx_HAL_Driver/Src/stm32g0xx_hal_exti.c **** 
 252:Drivers/STM32G0xx_HAL_Driver/Src/stm32g0xx_hal_exti.c ****   /* Store event mode */
 253:Drivers/STM32G0xx_HAL_Driver/Src/stm32g0xx_hal_exti.c ****   *regaddr = regval;
 200              		.loc 1 253 3 is_stmt 1 view .LVU75
 201              		.loc 1 253 12 is_stmt 0 view .LVU76
 202 0074 1860     		str	r0, [r3]
 254:Drivers/STM32G0xx_HAL_Driver/Src/stm32g0xx_hal_exti.c **** 
 255:Drivers/STM32G0xx_HAL_Driver/Src/stm32g0xx_hal_exti.c ****   return HAL_OK;
ARM GAS  C:\Users\tugru\AppData\Local\Temp\cc2Qf47L.s 			page 9


 203              		.loc 1 255 3 is_stmt 1 view .LVU77
 204              		.loc 1 255 10 is_stmt 0 view .LVU78
 205 0076 0020     		movs	r0, #0
 206              	.LVL25:
 207              	.L2:
 256:Drivers/STM32G0xx_HAL_Driver/Src/stm32g0xx_hal_exti.c **** }
 208              		.loc 1 256 1 view .LVU79
 209              		@ sp needed
 210 0078 F0BD     		pop	{r4, r5, r6, r7, pc}
 211              	.LVL26:
 212              	.L4:
 185:Drivers/STM32G0xx_HAL_Driver/Src/stm32g0xx_hal_exti.c ****     }
 213              		.loc 1 185 7 is_stmt 1 view .LVU80
 185:Drivers/STM32G0xx_HAL_Driver/Src/stm32g0xx_hal_exti.c ****     }
 214              		.loc 1 185 14 is_stmt 0 view .LVU81
 215 007a 6646     		mov	r6, ip
 216 007c 9643     		bics	r6, r2
 217              	.LVL27:
 185:Drivers/STM32G0xx_HAL_Driver/Src/stm32g0xx_hal_exti.c ****     }
 218              		.loc 1 185 14 view .LVU82
 219 007e D8E7     		b	.L5
 220              	.LVL28:
 221              	.L6:
 202:Drivers/STM32G0xx_HAL_Driver/Src/stm32g0xx_hal_exti.c ****     }
 222              		.loc 1 202 7 is_stmt 1 view .LVU83
 202:Drivers/STM32G0xx_HAL_Driver/Src/stm32g0xx_hal_exti.c ****     }
 223              		.loc 1 202 14 is_stmt 0 view .LVU84
 224 0080 9643     		bics	r6, r2
 225              	.LVL29:
 202:Drivers/STM32G0xx_HAL_Driver/Src/stm32g0xx_hal_exti.c ****     }
 226              		.loc 1 202 14 view .LVU85
 227 0082 DFE7     		b	.L7
 228              	.LVL30:
 229              	.L14:
 211:Drivers/STM32G0xx_HAL_Driver/Src/stm32g0xx_hal_exti.c ****       assert_param(IS_EXTI_GPIO_PIN(linepos));
 230              		.loc 1 211 7 is_stmt 1 view .LVU86
 212:Drivers/STM32G0xx_HAL_Driver/Src/stm32g0xx_hal_exti.c **** 
 231              		.loc 1 212 7 view .LVU87
 214:Drivers/STM32G0xx_HAL_Driver/Src/stm32g0xx_hal_exti.c ****       regval &= ~(EXTI_EXTICR1_EXTI0 << (EXTI_EXTICR1_EXTI1_Pos * (linepos & 0x03u)));
 232              		.loc 1 214 7 view .LVU88
 214:Drivers/STM32G0xx_HAL_Driver/Src/stm32g0xx_hal_exti.c ****       regval &= ~(EXTI_EXTICR1_EXTI0 << (EXTI_EXTICR1_EXTI1_Pos * (linepos & 0x03u)));
 233              		.loc 1 214 37 is_stmt 0 view .LVU89
 234 0084 8008     		lsrs	r0, r0, #2
 235              	.LVL31:
 214:Drivers/STM32G0xx_HAL_Driver/Src/stm32g0xx_hal_exti.c ****       regval &= ~(EXTI_EXTICR1_EXTI0 << (EXTI_EXTICR1_EXTI1_Pos * (linepos & 0x03u)));
 236              		.loc 1 214 14 view .LVU90
 237 0086 0B4E     		ldr	r6, .L15
 238 0088 1830     		adds	r0, r0, #24
 239 008a 8000     		lsls	r0, r0, #2
 240 008c 8759     		ldr	r7, [r0, r6]
 241              	.LVL32:
 215:Drivers/STM32G0xx_HAL_Driver/Src/stm32g0xx_hal_exti.c ****       regval |= (pExtiConfig->GPIOSel << (EXTI_EXTICR1_EXTI1_Pos * (linepos & 0x03u)));
 242              		.loc 1 215 7 is_stmt 1 view .LVU91
 215:Drivers/STM32G0xx_HAL_Driver/Src/stm32g0xx_hal_exti.c ****       regval |= (pExtiConfig->GPIOSel << (EXTI_EXTICR1_EXTI1_Pos * (linepos & 0x03u)));
 243              		.loc 1 215 76 is_stmt 0 view .LVU92
 244 008e 0324     		movs	r4, #3
 245 0090 2540     		ands	r5, r4
ARM GAS  C:\Users\tugru\AppData\Local\Temp\cc2Qf47L.s 			page 10


 246              	.LVL33:
 215:Drivers/STM32G0xx_HAL_Driver/Src/stm32g0xx_hal_exti.c ****       regval |= (pExtiConfig->GPIOSel << (EXTI_EXTICR1_EXTI1_Pos * (linepos & 0x03u)));
 247              		.loc 1 215 65 view .LVU93
 248 0092 ED00     		lsls	r5, r5, #3
 215:Drivers/STM32G0xx_HAL_Driver/Src/stm32g0xx_hal_exti.c ****       regval |= (pExtiConfig->GPIOSel << (EXTI_EXTICR1_EXTI1_Pos * (linepos & 0x03u)));
 249              		.loc 1 215 38 view .LVU94
 250 0094 0434     		adds	r4, r4, #4
 251 0096 AC40     		lsls	r4, r4, r5
 215:Drivers/STM32G0xx_HAL_Driver/Src/stm32g0xx_hal_exti.c ****       regval |= (pExtiConfig->GPIOSel << (EXTI_EXTICR1_EXTI1_Pos * (linepos & 0x03u)));
 252              		.loc 1 215 14 view .LVU95
 253 0098 A743     		bics	r7, r4
 254              	.LVL34:
 216:Drivers/STM32G0xx_HAL_Driver/Src/stm32g0xx_hal_exti.c ****       EXTI->EXTICR[linepos >> 2u] = regval;
 255              		.loc 1 216 7 is_stmt 1 view .LVU96
 216:Drivers/STM32G0xx_HAL_Driver/Src/stm32g0xx_hal_exti.c ****       EXTI->EXTICR[linepos >> 2u] = regval;
 256              		.loc 1 216 39 is_stmt 0 view .LVU97
 257 009a CC68     		ldr	r4, [r1, #12]
 258 009c AC40     		lsls	r4, r4, r5
 216:Drivers/STM32G0xx_HAL_Driver/Src/stm32g0xx_hal_exti.c ****       EXTI->EXTICR[linepos >> 2u] = regval;
 259              		.loc 1 216 14 view .LVU98
 260 009e 3C43     		orrs	r4, r7
 261              	.LVL35:
 217:Drivers/STM32G0xx_HAL_Driver/Src/stm32g0xx_hal_exti.c ****     }
 262              		.loc 1 217 7 is_stmt 1 view .LVU99
 217:Drivers/STM32G0xx_HAL_Driver/Src/stm32g0xx_hal_exti.c ****     }
 263              		.loc 1 217 35 is_stmt 0 view .LVU100
 264 00a0 8451     		str	r4, [r0, r6]
 265 00a2 D6E7     		b	.L3
 266              	.LVL36:
 267              	.L8:
 232:Drivers/STM32G0xx_HAL_Driver/Src/stm32g0xx_hal_exti.c ****   }
 268              		.loc 1 232 5 is_stmt 1 view .LVU101
 232:Drivers/STM32G0xx_HAL_Driver/Src/stm32g0xx_hal_exti.c ****   }
 269              		.loc 1 232 12 is_stmt 0 view .LVU102
 270 00a4 9043     		bics	r0, r2
 271              	.LVL37:
 232:Drivers/STM32G0xx_HAL_Driver/Src/stm32g0xx_hal_exti.c ****   }
 272              		.loc 1 232 12 view .LVU103
 273 00a6 DCE7     		b	.L9
 274              	.LVL38:
 275              	.L10:
 249:Drivers/STM32G0xx_HAL_Driver/Src/stm32g0xx_hal_exti.c ****   }
 276              		.loc 1 249 5 is_stmt 1 view .LVU104
 249:Drivers/STM32G0xx_HAL_Driver/Src/stm32g0xx_hal_exti.c ****   }
 277              		.loc 1 249 12 is_stmt 0 view .LVU105
 278 00a8 9043     		bics	r0, r2
 279              	.LVL39:
 249:Drivers/STM32G0xx_HAL_Driver/Src/stm32g0xx_hal_exti.c ****   }
 280              		.loc 1 249 12 view .LVU106
 281 00aa E3E7     		b	.L11
 282              	.LVL40:
 283              	.L12:
 154:Drivers/STM32G0xx_HAL_Driver/Src/stm32g0xx_hal_exti.c ****   }
 284              		.loc 1 154 12 view .LVU107
 285 00ac 0120     		movs	r0, #1
 286              	.LVL41:
 154:Drivers/STM32G0xx_HAL_Driver/Src/stm32g0xx_hal_exti.c ****   }
ARM GAS  C:\Users\tugru\AppData\Local\Temp\cc2Qf47L.s 			page 11


 287              		.loc 1 154 12 view .LVU108
 288 00ae E3E7     		b	.L2
 289              	.LVL42:
 290              	.L13:
 154:Drivers/STM32G0xx_HAL_Driver/Src/stm32g0xx_hal_exti.c ****   }
 291              		.loc 1 154 12 view .LVU109
 292 00b0 0120     		movs	r0, #1
 293              	.LVL43:
 154:Drivers/STM32G0xx_HAL_Driver/Src/stm32g0xx_hal_exti.c ****   }
 294              		.loc 1 154 12 view .LVU110
 295 00b2 E1E7     		b	.L2
 296              	.L16:
 297              		.align	2
 298              	.L15:
 299 00b4 00180240 		.word	1073879040
 300 00b8 04180240 		.word	1073879044
 301 00bc 80180240 		.word	1073879168
 302 00c0 84180240 		.word	1073879172
 303              		.cfi_endproc
 304              	.LFE310:
 306              		.section	.text.HAL_EXTI_GetConfigLine,"ax",%progbits
 307              		.align	1
 308              		.global	HAL_EXTI_GetConfigLine
 309              		.syntax unified
 310              		.code	16
 311              		.thumb_func
 313              	HAL_EXTI_GetConfigLine:
 314              	.LVL44:
 315              	.LFB311:
 257:Drivers/STM32G0xx_HAL_Driver/Src/stm32g0xx_hal_exti.c **** 
 258:Drivers/STM32G0xx_HAL_Driver/Src/stm32g0xx_hal_exti.c **** 
 259:Drivers/STM32G0xx_HAL_Driver/Src/stm32g0xx_hal_exti.c **** /**
 260:Drivers/STM32G0xx_HAL_Driver/Src/stm32g0xx_hal_exti.c ****   * @brief  Get configuration of a dedicated Exti line.
 261:Drivers/STM32G0xx_HAL_Driver/Src/stm32g0xx_hal_exti.c ****   * @param  hexti Exti handle.
 262:Drivers/STM32G0xx_HAL_Driver/Src/stm32g0xx_hal_exti.c ****   * @param  pExtiConfig Pointer on structure to store Exti configuration.
 263:Drivers/STM32G0xx_HAL_Driver/Src/stm32g0xx_hal_exti.c ****   * @retval HAL Status.
 264:Drivers/STM32G0xx_HAL_Driver/Src/stm32g0xx_hal_exti.c ****   */
 265:Drivers/STM32G0xx_HAL_Driver/Src/stm32g0xx_hal_exti.c **** HAL_StatusTypeDef HAL_EXTI_GetConfigLine(EXTI_HandleTypeDef *hexti, EXTI_ConfigTypeDef *pExtiConfig
 266:Drivers/STM32G0xx_HAL_Driver/Src/stm32g0xx_hal_exti.c **** {
 316              		.loc 1 266 1 is_stmt 1 view -0
 317              		.cfi_startproc
 318              		@ args = 0, pretend = 0, frame = 0
 319              		@ frame_needed = 0, uses_anonymous_args = 0
 320              		.loc 1 266 1 is_stmt 0 view .LVU112
 321 0000 70B5     		push	{r4, r5, r6, lr}
 322              	.LCFI1:
 323              		.cfi_def_cfa_offset 16
 324              		.cfi_offset 4, -16
 325              		.cfi_offset 5, -12
 326              		.cfi_offset 6, -8
 327              		.cfi_offset 14, -4
 267:Drivers/STM32G0xx_HAL_Driver/Src/stm32g0xx_hal_exti.c ****   __IO uint32_t *regaddr;
 328              		.loc 1 267 3 is_stmt 1 view .LVU113
 268:Drivers/STM32G0xx_HAL_Driver/Src/stm32g0xx_hal_exti.c ****   uint32_t regval;
 329              		.loc 1 268 3 view .LVU114
 269:Drivers/STM32G0xx_HAL_Driver/Src/stm32g0xx_hal_exti.c ****   uint32_t linepos;
 330              		.loc 1 269 3 view .LVU115
ARM GAS  C:\Users\tugru\AppData\Local\Temp\cc2Qf47L.s 			page 12


 270:Drivers/STM32G0xx_HAL_Driver/Src/stm32g0xx_hal_exti.c ****   uint32_t maskline;
 331              		.loc 1 270 3 view .LVU116
 271:Drivers/STM32G0xx_HAL_Driver/Src/stm32g0xx_hal_exti.c ****   uint32_t offset;
 332              		.loc 1 271 3 view .LVU117
 272:Drivers/STM32G0xx_HAL_Driver/Src/stm32g0xx_hal_exti.c **** 
 273:Drivers/STM32G0xx_HAL_Driver/Src/stm32g0xx_hal_exti.c ****   /* Check null pointer */
 274:Drivers/STM32G0xx_HAL_Driver/Src/stm32g0xx_hal_exti.c ****   if ((hexti == NULL) || (pExtiConfig == NULL))
 333              		.loc 1 274 3 view .LVU118
 334              		.loc 1 274 6 is_stmt 0 view .LVU119
 335 0002 0028     		cmp	r0, #0
 336 0004 4BD0     		beq	.L24
 337              		.loc 1 274 23 discriminator 1 view .LVU120
 338 0006 0029     		cmp	r1, #0
 339 0008 4BD0     		beq	.L25
 275:Drivers/STM32G0xx_HAL_Driver/Src/stm32g0xx_hal_exti.c ****   {
 276:Drivers/STM32G0xx_HAL_Driver/Src/stm32g0xx_hal_exti.c ****     return HAL_ERROR;
 277:Drivers/STM32G0xx_HAL_Driver/Src/stm32g0xx_hal_exti.c ****   }
 278:Drivers/STM32G0xx_HAL_Driver/Src/stm32g0xx_hal_exti.c **** 
 279:Drivers/STM32G0xx_HAL_Driver/Src/stm32g0xx_hal_exti.c ****   /* Check the parameter */
 280:Drivers/STM32G0xx_HAL_Driver/Src/stm32g0xx_hal_exti.c ****   assert_param(IS_EXTI_LINE(hexti->Line));
 340              		.loc 1 280 3 is_stmt 1 view .LVU121
 281:Drivers/STM32G0xx_HAL_Driver/Src/stm32g0xx_hal_exti.c **** 
 282:Drivers/STM32G0xx_HAL_Driver/Src/stm32g0xx_hal_exti.c ****   /* Store handle line number to configiguration structure */
 283:Drivers/STM32G0xx_HAL_Driver/Src/stm32g0xx_hal_exti.c ****   pExtiConfig->Line = hexti->Line;
 341              		.loc 1 283 3 view .LVU122
 342              		.loc 1 283 28 is_stmt 0 view .LVU123
 343 000a 0468     		ldr	r4, [r0]
 344              		.loc 1 283 21 view .LVU124
 345 000c 0C60     		str	r4, [r1]
 284:Drivers/STM32G0xx_HAL_Driver/Src/stm32g0xx_hal_exti.c **** 
 285:Drivers/STM32G0xx_HAL_Driver/Src/stm32g0xx_hal_exti.c ****   /* compute line register offset and line mask */
 286:Drivers/STM32G0xx_HAL_Driver/Src/stm32g0xx_hal_exti.c ****   offset = ((pExtiConfig->Line & EXTI_REG_MASK) >> EXTI_REG_SHIFT);
 346              		.loc 1 286 3 is_stmt 1 view .LVU125
 347              		.loc 1 286 49 is_stmt 0 view .LVU126
 348 000e 220C     		lsrs	r2, r4, #16
 349              		.loc 1 286 10 view .LVU127
 350 0010 0123     		movs	r3, #1
 351 0012 1A40     		ands	r2, r3
 352              	.LVL45:
 287:Drivers/STM32G0xx_HAL_Driver/Src/stm32g0xx_hal_exti.c ****   linepos = (pExtiConfig->Line & EXTI_PIN_MASK);
 353              		.loc 1 287 3 is_stmt 1 view .LVU128
 354              		.loc 1 287 11 is_stmt 0 view .LVU129
 355 0014 1F25     		movs	r5, #31
 356 0016 2540     		ands	r5, r4
 357              	.LVL46:
 288:Drivers/STM32G0xx_HAL_Driver/Src/stm32g0xx_hal_exti.c ****   maskline = (1uL << linepos);
 358              		.loc 1 288 3 is_stmt 1 view .LVU130
 359              		.loc 1 288 12 is_stmt 0 view .LVU131
 360 0018 AB40     		lsls	r3, r3, r5
 361              	.LVL47:
 289:Drivers/STM32G0xx_HAL_Driver/Src/stm32g0xx_hal_exti.c **** 
 290:Drivers/STM32G0xx_HAL_Driver/Src/stm32g0xx_hal_exti.c ****   /* 1] Get core mode : interrupt */
 291:Drivers/STM32G0xx_HAL_Driver/Src/stm32g0xx_hal_exti.c ****   regaddr = (&EXTI->IMR1 + (EXTI_MODE_OFFSET * offset));
 362              		.loc 1 291 3 is_stmt 1 view .LVU132
 363              		.loc 1 291 26 is_stmt 0 view .LVU133
 364 001a 1001     		lsls	r0, r2, #4
 365              	.LVL48:
ARM GAS  C:\Users\tugru\AppData\Local\Temp\cc2Qf47L.s 			page 13


 366              		.loc 1 291 11 view .LVU134
 367 001c 234E     		ldr	r6, .L29
 368 001e 8619     		adds	r6, r0, r6
 369              	.LVL49:
 292:Drivers/STM32G0xx_HAL_Driver/Src/stm32g0xx_hal_exti.c ****   regval = *regaddr;
 370              		.loc 1 292 3 is_stmt 1 view .LVU135
 371              		.loc 1 292 10 is_stmt 0 view .LVU136
 372 0020 3668     		ldr	r6, [r6]
 373              	.LVL50:
 293:Drivers/STM32G0xx_HAL_Driver/Src/stm32g0xx_hal_exti.c **** 
 294:Drivers/STM32G0xx_HAL_Driver/Src/stm32g0xx_hal_exti.c ****   /* Check if selected line is enable */
 295:Drivers/STM32G0xx_HAL_Driver/Src/stm32g0xx_hal_exti.c ****   if ((regval & maskline) != 0x00u)
 374              		.loc 1 295 3 is_stmt 1 view .LVU137
 375              		.loc 1 295 6 is_stmt 0 view .LVU138
 376 0022 1E42     		tst	r6, r3
 377 0024 2AD0     		beq	.L19
 296:Drivers/STM32G0xx_HAL_Driver/Src/stm32g0xx_hal_exti.c ****   {
 297:Drivers/STM32G0xx_HAL_Driver/Src/stm32g0xx_hal_exti.c ****     pExtiConfig->Mode = EXTI_MODE_INTERRUPT;
 378              		.loc 1 297 5 is_stmt 1 view .LVU139
 379              		.loc 1 297 23 is_stmt 0 view .LVU140
 380 0026 0126     		movs	r6, #1
 381              	.LVL51:
 382              		.loc 1 297 23 view .LVU141
 383 0028 4E60     		str	r6, [r1, #4]
 384              	.L20:
 298:Drivers/STM32G0xx_HAL_Driver/Src/stm32g0xx_hal_exti.c ****   }
 299:Drivers/STM32G0xx_HAL_Driver/Src/stm32g0xx_hal_exti.c ****   else
 300:Drivers/STM32G0xx_HAL_Driver/Src/stm32g0xx_hal_exti.c ****   {
 301:Drivers/STM32G0xx_HAL_Driver/Src/stm32g0xx_hal_exti.c ****     pExtiConfig->Mode = EXTI_MODE_NONE;
 302:Drivers/STM32G0xx_HAL_Driver/Src/stm32g0xx_hal_exti.c ****   }
 303:Drivers/STM32G0xx_HAL_Driver/Src/stm32g0xx_hal_exti.c **** 
 304:Drivers/STM32G0xx_HAL_Driver/Src/stm32g0xx_hal_exti.c ****   /* Get event mode */
 305:Drivers/STM32G0xx_HAL_Driver/Src/stm32g0xx_hal_exti.c ****   regaddr = (&EXTI->EMR1 + (EXTI_MODE_OFFSET * offset));
 385              		.loc 1 305 3 is_stmt 1 view .LVU142
 386              		.loc 1 305 11 is_stmt 0 view .LVU143
 387 002a 214E     		ldr	r6, .L29+4
 388 002c B446     		mov	ip, r6
 389 002e 6044     		add	r0, r0, ip
 390              	.LVL52:
 306:Drivers/STM32G0xx_HAL_Driver/Src/stm32g0xx_hal_exti.c ****   regval = *regaddr;
 391              		.loc 1 306 3 is_stmt 1 view .LVU144
 392              		.loc 1 306 10 is_stmt 0 view .LVU145
 393 0030 0068     		ldr	r0, [r0]
 394              	.LVL53:
 307:Drivers/STM32G0xx_HAL_Driver/Src/stm32g0xx_hal_exti.c **** 
 308:Drivers/STM32G0xx_HAL_Driver/Src/stm32g0xx_hal_exti.c ****   /* Check if selected line is enable */
 309:Drivers/STM32G0xx_HAL_Driver/Src/stm32g0xx_hal_exti.c ****   if ((regval & maskline) != 0x00u)
 395              		.loc 1 309 3 is_stmt 1 view .LVU146
 396              		.loc 1 309 6 is_stmt 0 view .LVU147
 397 0032 1842     		tst	r0, r3
 398 0034 03D0     		beq	.L21
 310:Drivers/STM32G0xx_HAL_Driver/Src/stm32g0xx_hal_exti.c ****   {
 311:Drivers/STM32G0xx_HAL_Driver/Src/stm32g0xx_hal_exti.c ****     pExtiConfig->Mode |= EXTI_MODE_EVENT;
 399              		.loc 1 311 5 is_stmt 1 view .LVU148
 400              		.loc 1 311 23 is_stmt 0 view .LVU149
 401 0036 0220     		movs	r0, #2
 402              	.LVL54:
ARM GAS  C:\Users\tugru\AppData\Local\Temp\cc2Qf47L.s 			page 14


 403              		.loc 1 311 23 view .LVU150
 404 0038 4E68     		ldr	r6, [r1, #4]
 405              	.LVL55:
 406              		.loc 1 311 23 view .LVU151
 407 003a 3043     		orrs	r0, r6
 408 003c 4860     		str	r0, [r1, #4]
 409              	.L21:
 312:Drivers/STM32G0xx_HAL_Driver/Src/stm32g0xx_hal_exti.c ****   }
 313:Drivers/STM32G0xx_HAL_Driver/Src/stm32g0xx_hal_exti.c **** 
 314:Drivers/STM32G0xx_HAL_Driver/Src/stm32g0xx_hal_exti.c ****   /* Get default Trigger and GPIOSel configuration */
 315:Drivers/STM32G0xx_HAL_Driver/Src/stm32g0xx_hal_exti.c ****   pExtiConfig->Trigger = EXTI_TRIGGER_NONE;
 410              		.loc 1 315 3 is_stmt 1 view .LVU152
 411              		.loc 1 315 24 is_stmt 0 view .LVU153
 412 003e 0020     		movs	r0, #0
 413 0040 8860     		str	r0, [r1, #8]
 316:Drivers/STM32G0xx_HAL_Driver/Src/stm32g0xx_hal_exti.c ****   pExtiConfig->GPIOSel = 0x00u;
 414              		.loc 1 316 3 is_stmt 1 view .LVU154
 415              		.loc 1 316 24 is_stmt 0 view .LVU155
 416 0042 C860     		str	r0, [r1, #12]
 317:Drivers/STM32G0xx_HAL_Driver/Src/stm32g0xx_hal_exti.c **** 
 318:Drivers/STM32G0xx_HAL_Driver/Src/stm32g0xx_hal_exti.c ****   /* 2] Get trigger for configurable lines : rising */
 319:Drivers/STM32G0xx_HAL_Driver/Src/stm32g0xx_hal_exti.c ****   if ((pExtiConfig->Line & EXTI_CONFIG) != 0x00u)
 417              		.loc 1 319 3 is_stmt 1 view .LVU156
 418              		.loc 1 319 6 is_stmt 0 view .LVU157
 419 0044 A001     		lsls	r0, r4, #6
 420 0046 2ED5     		bpl	.L26
 320:Drivers/STM32G0xx_HAL_Driver/Src/stm32g0xx_hal_exti.c ****   {
 321:Drivers/STM32G0xx_HAL_Driver/Src/stm32g0xx_hal_exti.c ****     regaddr = (&EXTI->RTSR1 + (EXTI_CONFIG_OFFSET * offset));
 421              		.loc 1 321 5 is_stmt 1 view .LVU158
 422              		.loc 1 321 29 is_stmt 0 view .LVU159
 423 0048 5201     		lsls	r2, r2, #5
 424              	.LVL56:
 425              		.loc 1 321 13 view .LVU160
 426 004a 1A48     		ldr	r0, .L29+8
 427 004c 1018     		adds	r0, r2, r0
 428              	.LVL57:
 322:Drivers/STM32G0xx_HAL_Driver/Src/stm32g0xx_hal_exti.c ****     regval = *regaddr;
 429              		.loc 1 322 5 is_stmt 1 view .LVU161
 430              		.loc 1 322 12 is_stmt 0 view .LVU162
 431 004e 0068     		ldr	r0, [r0]
 432              	.LVL58:
 323:Drivers/STM32G0xx_HAL_Driver/Src/stm32g0xx_hal_exti.c **** 
 324:Drivers/STM32G0xx_HAL_Driver/Src/stm32g0xx_hal_exti.c ****     /* Check if configuration of selected line is enable */
 325:Drivers/STM32G0xx_HAL_Driver/Src/stm32g0xx_hal_exti.c ****     if ((regval & maskline) != 0x00u)
 433              		.loc 1 325 5 is_stmt 1 view .LVU163
 434              		.loc 1 325 8 is_stmt 0 view .LVU164
 435 0050 1842     		tst	r0, r3
 436 0052 01D0     		beq	.L22
 326:Drivers/STM32G0xx_HAL_Driver/Src/stm32g0xx_hal_exti.c ****     {
 327:Drivers/STM32G0xx_HAL_Driver/Src/stm32g0xx_hal_exti.c ****       pExtiConfig->Trigger = EXTI_TRIGGER_RISING;
 437              		.loc 1 327 7 is_stmt 1 view .LVU165
 438              		.loc 1 327 28 is_stmt 0 view .LVU166
 439 0054 0120     		movs	r0, #1
 440              	.LVL59:
 441              		.loc 1 327 28 view .LVU167
 442 0056 8860     		str	r0, [r1, #8]
 443              	.LVL60:
ARM GAS  C:\Users\tugru\AppData\Local\Temp\cc2Qf47L.s 			page 15


 444              	.L22:
 328:Drivers/STM32G0xx_HAL_Driver/Src/stm32g0xx_hal_exti.c ****     }
 329:Drivers/STM32G0xx_HAL_Driver/Src/stm32g0xx_hal_exti.c **** 
 330:Drivers/STM32G0xx_HAL_Driver/Src/stm32g0xx_hal_exti.c ****     /* Get falling configuration */
 331:Drivers/STM32G0xx_HAL_Driver/Src/stm32g0xx_hal_exti.c ****     regaddr = (&EXTI->FTSR1 + (EXTI_CONFIG_OFFSET * offset));
 445              		.loc 1 331 5 is_stmt 1 view .LVU168
 446              		.loc 1 331 13 is_stmt 0 view .LVU169
 447 0058 1748     		ldr	r0, .L29+12
 448 005a 8446     		mov	ip, r0
 449 005c 6244     		add	r2, r2, ip
 450              	.LVL61:
 332:Drivers/STM32G0xx_HAL_Driver/Src/stm32g0xx_hal_exti.c ****     regval = *regaddr;
 451              		.loc 1 332 5 is_stmt 1 view .LVU170
 452              		.loc 1 332 12 is_stmt 0 view .LVU171
 453 005e 1268     		ldr	r2, [r2]
 454              	.LVL62:
 333:Drivers/STM32G0xx_HAL_Driver/Src/stm32g0xx_hal_exti.c **** 
 334:Drivers/STM32G0xx_HAL_Driver/Src/stm32g0xx_hal_exti.c ****     /* Check if configuration of selected line is enable */
 335:Drivers/STM32G0xx_HAL_Driver/Src/stm32g0xx_hal_exti.c ****     if ((regval & maskline) != 0x00u)
 455              		.loc 1 335 5 is_stmt 1 view .LVU172
 456              		.loc 1 335 8 is_stmt 0 view .LVU173
 457 0060 1A42     		tst	r2, r3
 458 0062 03D0     		beq	.L23
 336:Drivers/STM32G0xx_HAL_Driver/Src/stm32g0xx_hal_exti.c ****     {
 337:Drivers/STM32G0xx_HAL_Driver/Src/stm32g0xx_hal_exti.c ****       pExtiConfig->Trigger |= EXTI_TRIGGER_FALLING;
 459              		.loc 1 337 7 is_stmt 1 view .LVU174
 460              		.loc 1 337 28 is_stmt 0 view .LVU175
 461 0064 0223     		movs	r3, #2
 462              	.LVL63:
 463              		.loc 1 337 28 view .LVU176
 464 0066 8A68     		ldr	r2, [r1, #8]
 465              	.LVL64:
 466              		.loc 1 337 28 view .LVU177
 467 0068 1343     		orrs	r3, r2
 468 006a 8B60     		str	r3, [r1, #8]
 469              	.L23:
 338:Drivers/STM32G0xx_HAL_Driver/Src/stm32g0xx_hal_exti.c ****     }
 339:Drivers/STM32G0xx_HAL_Driver/Src/stm32g0xx_hal_exti.c **** 
 340:Drivers/STM32G0xx_HAL_Driver/Src/stm32g0xx_hal_exti.c ****     /* Get Gpio port selection for gpio lines */
 341:Drivers/STM32G0xx_HAL_Driver/Src/stm32g0xx_hal_exti.c ****     if ((pExtiConfig->Line & EXTI_GPIO) == EXTI_GPIO)
 470              		.loc 1 341 5 is_stmt 1 view .LVU178
 471              		.loc 1 341 28 is_stmt 0 view .LVU179
 472 006c C023     		movs	r3, #192
 473 006e DB04     		lsls	r3, r3, #19
 474 0070 2200     		movs	r2, r4
 475 0072 1A40     		ands	r2, r3
 476              		.loc 1 341 8 view .LVU180
 477 0074 9A42     		cmp	r2, r3
 478 0076 04D0     		beq	.L28
 342:Drivers/STM32G0xx_HAL_Driver/Src/stm32g0xx_hal_exti.c ****     {
 343:Drivers/STM32G0xx_HAL_Driver/Src/stm32g0xx_hal_exti.c ****       assert_param(IS_EXTI_GPIO_PIN(linepos));
 344:Drivers/STM32G0xx_HAL_Driver/Src/stm32g0xx_hal_exti.c **** 
 345:Drivers/STM32G0xx_HAL_Driver/Src/stm32g0xx_hal_exti.c ****       regval = EXTI->EXTICR[linepos >> 2u];
 346:Drivers/STM32G0xx_HAL_Driver/Src/stm32g0xx_hal_exti.c ****       pExtiConfig->GPIOSel = (regval >> (EXTI_EXTICR1_EXTI1_Pos * (linepos & 0x03u))) & EXTI_EXTICR
 347:Drivers/STM32G0xx_HAL_Driver/Src/stm32g0xx_hal_exti.c ****     }
 348:Drivers/STM32G0xx_HAL_Driver/Src/stm32g0xx_hal_exti.c ****   }
 349:Drivers/STM32G0xx_HAL_Driver/Src/stm32g0xx_hal_exti.c **** 
ARM GAS  C:\Users\tugru\AppData\Local\Temp\cc2Qf47L.s 			page 16


 350:Drivers/STM32G0xx_HAL_Driver/Src/stm32g0xx_hal_exti.c ****   return HAL_OK;
 479              		.loc 1 350 10 view .LVU181
 480 0078 0020     		movs	r0, #0
 481              	.LVL65:
 482              		.loc 1 350 10 view .LVU182
 483 007a 15E0     		b	.L18
 484              	.LVL66:
 485              	.L19:
 301:Drivers/STM32G0xx_HAL_Driver/Src/stm32g0xx_hal_exti.c ****   }
 486              		.loc 1 301 5 is_stmt 1 view .LVU183
 301:Drivers/STM32G0xx_HAL_Driver/Src/stm32g0xx_hal_exti.c ****   }
 487              		.loc 1 301 23 is_stmt 0 view .LVU184
 488 007c 0026     		movs	r6, #0
 489              	.LVL67:
 301:Drivers/STM32G0xx_HAL_Driver/Src/stm32g0xx_hal_exti.c ****   }
 490              		.loc 1 301 23 view .LVU185
 491 007e 4E60     		str	r6, [r1, #4]
 492 0080 D3E7     		b	.L20
 493              	.LVL68:
 494              	.L28:
 343:Drivers/STM32G0xx_HAL_Driver/Src/stm32g0xx_hal_exti.c **** 
 495              		.loc 1 343 7 is_stmt 1 view .LVU186
 345:Drivers/STM32G0xx_HAL_Driver/Src/stm32g0xx_hal_exti.c ****       pExtiConfig->GPIOSel = (regval >> (EXTI_EXTICR1_EXTI1_Pos * (linepos & 0x03u))) & EXTI_EXTICR
 496              		.loc 1 345 7 view .LVU187
 345:Drivers/STM32G0xx_HAL_Driver/Src/stm32g0xx_hal_exti.c ****       pExtiConfig->GPIOSel = (regval >> (EXTI_EXTICR1_EXTI1_Pos * (linepos & 0x03u))) & EXTI_EXTICR
 497              		.loc 1 345 37 is_stmt 0 view .LVU188
 498 0082 AB08     		lsrs	r3, r5, #2
 345:Drivers/STM32G0xx_HAL_Driver/Src/stm32g0xx_hal_exti.c ****       pExtiConfig->GPIOSel = (regval >> (EXTI_EXTICR1_EXTI1_Pos * (linepos & 0x03u))) & EXTI_EXTICR
 499              		.loc 1 345 14 view .LVU189
 500 0084 1833     		adds	r3, r3, #24
 501 0086 9B00     		lsls	r3, r3, #2
 502 0088 0A4A     		ldr	r2, .L29+8
 503 008a 9A58     		ldr	r2, [r3, r2]
 504              	.LVL69:
 346:Drivers/STM32G0xx_HAL_Driver/Src/stm32g0xx_hal_exti.c ****     }
 505              		.loc 1 346 7 is_stmt 1 view .LVU190
 346:Drivers/STM32G0xx_HAL_Driver/Src/stm32g0xx_hal_exti.c ****     }
 506              		.loc 1 346 76 is_stmt 0 view .LVU191
 507 008c 0323     		movs	r3, #3
 508 008e 1C40     		ands	r4, r3
 509              	.LVL70:
 346:Drivers/STM32G0xx_HAL_Driver/Src/stm32g0xx_hal_exti.c ****     }
 510              		.loc 1 346 65 view .LVU192
 511 0090 E400     		lsls	r4, r4, #3
 346:Drivers/STM32G0xx_HAL_Driver/Src/stm32g0xx_hal_exti.c ****     }
 512              		.loc 1 346 38 view .LVU193
 513 0092 E240     		lsrs	r2, r2, r4
 514              	.LVL71:
 346:Drivers/STM32G0xx_HAL_Driver/Src/stm32g0xx_hal_exti.c ****     }
 515              		.loc 1 346 87 view .LVU194
 516 0094 0433     		adds	r3, r3, #4
 517 0096 1340     		ands	r3, r2
 346:Drivers/STM32G0xx_HAL_Driver/Src/stm32g0xx_hal_exti.c ****     }
 518              		.loc 1 346 28 view .LVU195
 519 0098 CB60     		str	r3, [r1, #12]
 520              		.loc 1 350 10 view .LVU196
 521 009a 0020     		movs	r0, #0
ARM GAS  C:\Users\tugru\AppData\Local\Temp\cc2Qf47L.s 			page 17


 522              	.LVL72:
 523              		.loc 1 350 10 view .LVU197
 524 009c 04E0     		b	.L18
 525              	.LVL73:
 526              	.L24:
 276:Drivers/STM32G0xx_HAL_Driver/Src/stm32g0xx_hal_exti.c ****   }
 527              		.loc 1 276 12 view .LVU198
 528 009e 0120     		movs	r0, #1
 529              	.LVL74:
 276:Drivers/STM32G0xx_HAL_Driver/Src/stm32g0xx_hal_exti.c ****   }
 530              		.loc 1 276 12 view .LVU199
 531 00a0 02E0     		b	.L18
 532              	.LVL75:
 533              	.L25:
 276:Drivers/STM32G0xx_HAL_Driver/Src/stm32g0xx_hal_exti.c ****   }
 534              		.loc 1 276 12 view .LVU200
 535 00a2 0120     		movs	r0, #1
 536              	.LVL76:
 276:Drivers/STM32G0xx_HAL_Driver/Src/stm32g0xx_hal_exti.c ****   }
 537              		.loc 1 276 12 view .LVU201
 538 00a4 00E0     		b	.L18
 539              	.LVL77:
 540              	.L26:
 541              		.loc 1 350 10 view .LVU202
 542 00a6 0020     		movs	r0, #0
 543              	.LVL78:
 544              	.L18:
 351:Drivers/STM32G0xx_HAL_Driver/Src/stm32g0xx_hal_exti.c **** }
 545              		.loc 1 351 1 view .LVU203
 546              		@ sp needed
 547 00a8 70BD     		pop	{r4, r5, r6, pc}
 548              	.L30:
 549 00aa C046     		.align	2
 550              	.L29:
 551 00ac 80180240 		.word	1073879168
 552 00b0 84180240 		.word	1073879172
 553 00b4 00180240 		.word	1073879040
 554 00b8 04180240 		.word	1073879044
 555              		.cfi_endproc
 556              	.LFE311:
 558              		.section	.text.HAL_EXTI_ClearConfigLine,"ax",%progbits
 559              		.align	1
 560              		.global	HAL_EXTI_ClearConfigLine
 561              		.syntax unified
 562              		.code	16
 563              		.thumb_func
 565              	HAL_EXTI_ClearConfigLine:
 566              	.LVL79:
 567              	.LFB312:
 352:Drivers/STM32G0xx_HAL_Driver/Src/stm32g0xx_hal_exti.c **** 
 353:Drivers/STM32G0xx_HAL_Driver/Src/stm32g0xx_hal_exti.c **** 
 354:Drivers/STM32G0xx_HAL_Driver/Src/stm32g0xx_hal_exti.c **** /**
 355:Drivers/STM32G0xx_HAL_Driver/Src/stm32g0xx_hal_exti.c ****   * @brief  Clear whole configuration of a dedicated Exti line.
 356:Drivers/STM32G0xx_HAL_Driver/Src/stm32g0xx_hal_exti.c ****   * @param  hexti Exti handle.
 357:Drivers/STM32G0xx_HAL_Driver/Src/stm32g0xx_hal_exti.c ****   * @retval HAL Status.
 358:Drivers/STM32G0xx_HAL_Driver/Src/stm32g0xx_hal_exti.c ****   */
 359:Drivers/STM32G0xx_HAL_Driver/Src/stm32g0xx_hal_exti.c **** HAL_StatusTypeDef HAL_EXTI_ClearConfigLine(EXTI_HandleTypeDef *hexti)
ARM GAS  C:\Users\tugru\AppData\Local\Temp\cc2Qf47L.s 			page 18


 360:Drivers/STM32G0xx_HAL_Driver/Src/stm32g0xx_hal_exti.c **** {
 568              		.loc 1 360 1 is_stmt 1 view -0
 569              		.cfi_startproc
 570              		@ args = 0, pretend = 0, frame = 0
 571              		@ frame_needed = 0, uses_anonymous_args = 0
 572              		.loc 1 360 1 is_stmt 0 view .LVU205
 573 0000 F0B5     		push	{r4, r5, r6, r7, lr}
 574              	.LCFI2:
 575              		.cfi_def_cfa_offset 20
 576              		.cfi_offset 4, -20
 577              		.cfi_offset 5, -16
 578              		.cfi_offset 6, -12
 579              		.cfi_offset 7, -8
 580              		.cfi_offset 14, -4
 581 0002 C646     		mov	lr, r8
 582 0004 00B5     		push	{lr}
 583              	.LCFI3:
 584              		.cfi_def_cfa_offset 24
 585              		.cfi_offset 8, -24
 361:Drivers/STM32G0xx_HAL_Driver/Src/stm32g0xx_hal_exti.c ****   __IO uint32_t *regaddr;
 586              		.loc 1 361 3 is_stmt 1 view .LVU206
 362:Drivers/STM32G0xx_HAL_Driver/Src/stm32g0xx_hal_exti.c ****   uint32_t regval;
 587              		.loc 1 362 3 view .LVU207
 363:Drivers/STM32G0xx_HAL_Driver/Src/stm32g0xx_hal_exti.c ****   uint32_t linepos;
 588              		.loc 1 363 3 view .LVU208
 364:Drivers/STM32G0xx_HAL_Driver/Src/stm32g0xx_hal_exti.c ****   uint32_t maskline;
 589              		.loc 1 364 3 view .LVU209
 365:Drivers/STM32G0xx_HAL_Driver/Src/stm32g0xx_hal_exti.c ****   uint32_t offset;
 590              		.loc 1 365 3 view .LVU210
 366:Drivers/STM32G0xx_HAL_Driver/Src/stm32g0xx_hal_exti.c **** 
 367:Drivers/STM32G0xx_HAL_Driver/Src/stm32g0xx_hal_exti.c ****   /* Check null pointer */
 368:Drivers/STM32G0xx_HAL_Driver/Src/stm32g0xx_hal_exti.c ****   if (hexti == NULL)
 591              		.loc 1 368 3 view .LVU211
 592              		.loc 1 368 6 is_stmt 0 view .LVU212
 593 0006 0028     		cmp	r0, #0
 594 0008 3ED0     		beq	.L33
 369:Drivers/STM32G0xx_HAL_Driver/Src/stm32g0xx_hal_exti.c ****   {
 370:Drivers/STM32G0xx_HAL_Driver/Src/stm32g0xx_hal_exti.c ****     return HAL_ERROR;
 371:Drivers/STM32G0xx_HAL_Driver/Src/stm32g0xx_hal_exti.c ****   }
 372:Drivers/STM32G0xx_HAL_Driver/Src/stm32g0xx_hal_exti.c **** 
 373:Drivers/STM32G0xx_HAL_Driver/Src/stm32g0xx_hal_exti.c ****   /* Check the parameter */
 374:Drivers/STM32G0xx_HAL_Driver/Src/stm32g0xx_hal_exti.c ****   assert_param(IS_EXTI_LINE(hexti->Line));
 595              		.loc 1 374 3 is_stmt 1 view .LVU213
 375:Drivers/STM32G0xx_HAL_Driver/Src/stm32g0xx_hal_exti.c **** 
 376:Drivers/STM32G0xx_HAL_Driver/Src/stm32g0xx_hal_exti.c ****   /* compute line register offset and line mask */
 377:Drivers/STM32G0xx_HAL_Driver/Src/stm32g0xx_hal_exti.c ****   offset = ((hexti->Line & EXTI_REG_MASK) >> EXTI_REG_SHIFT);
 596              		.loc 1 377 3 view .LVU214
 597              		.loc 1 377 19 is_stmt 0 view .LVU215
 598 000a 0668     		ldr	r6, [r0]
 599              		.loc 1 377 43 view .LVU216
 600 000c 330C     		lsrs	r3, r6, #16
 601              		.loc 1 377 10 view .LVU217
 602 000e 0122     		movs	r2, #1
 603 0010 1340     		ands	r3, r2
 604              	.LVL80:
 378:Drivers/STM32G0xx_HAL_Driver/Src/stm32g0xx_hal_exti.c ****   linepos = (hexti->Line & EXTI_PIN_MASK);
 605              		.loc 1 378 3 is_stmt 1 view .LVU218
ARM GAS  C:\Users\tugru\AppData\Local\Temp\cc2Qf47L.s 			page 19


 606              		.loc 1 378 11 is_stmt 0 view .LVU219
 607 0012 1F24     		movs	r4, #31
 608 0014 3440     		ands	r4, r6
 609              	.LVL81:
 379:Drivers/STM32G0xx_HAL_Driver/Src/stm32g0xx_hal_exti.c ****   maskline = (1uL << linepos);
 610              		.loc 1 379 3 is_stmt 1 view .LVU220
 611              		.loc 1 379 12 is_stmt 0 view .LVU221
 612 0016 A240     		lsls	r2, r2, r4
 613              	.LVL82:
 380:Drivers/STM32G0xx_HAL_Driver/Src/stm32g0xx_hal_exti.c **** 
 381:Drivers/STM32G0xx_HAL_Driver/Src/stm32g0xx_hal_exti.c ****   /* 1] Clear interrupt mode */
 382:Drivers/STM32G0xx_HAL_Driver/Src/stm32g0xx_hal_exti.c ****   regaddr = (&EXTI->IMR1 + (EXTI_MODE_OFFSET * offset));
 614              		.loc 1 382 3 is_stmt 1 view .LVU222
 615              		.loc 1 382 26 is_stmt 0 view .LVU223
 616 0018 1901     		lsls	r1, r3, #4
 617              		.loc 1 382 11 view .LVU224
 618 001a 1E4D     		ldr	r5, .L37
 619 001c AC46     		mov	ip, r5
 620 001e 8C44     		add	ip, ip, r1
 621              	.LVL83:
 383:Drivers/STM32G0xx_HAL_Driver/Src/stm32g0xx_hal_exti.c ****   regval = (*regaddr & ~maskline);
 622              		.loc 1 383 3 is_stmt 1 view .LVU225
 623              		.loc 1 383 13 is_stmt 0 view .LVU226
 624 0020 6546     		mov	r5, ip
 625 0022 2D68     		ldr	r5, [r5]
 626              		.loc 1 383 24 view .LVU227
 627 0024 D743     		mvns	r7, r2
 628 0026 B846     		mov	r8, r7
 629              		.loc 1 383 10 view .LVU228
 630 0028 9543     		bics	r5, r2
 631              	.LVL84:
 384:Drivers/STM32G0xx_HAL_Driver/Src/stm32g0xx_hal_exti.c ****   *regaddr = regval;
 632              		.loc 1 384 3 is_stmt 1 view .LVU229
 633              		.loc 1 384 12 is_stmt 0 view .LVU230
 634 002a 6746     		mov	r7, ip
 635 002c 3D60     		str	r5, [r7]
 385:Drivers/STM32G0xx_HAL_Driver/Src/stm32g0xx_hal_exti.c **** 
 386:Drivers/STM32G0xx_HAL_Driver/Src/stm32g0xx_hal_exti.c ****   /* 2] Clear event mode */
 387:Drivers/STM32G0xx_HAL_Driver/Src/stm32g0xx_hal_exti.c ****   regaddr = (&EXTI->EMR1 + (EXTI_MODE_OFFSET * offset));
 636              		.loc 1 387 3 is_stmt 1 view .LVU231
 637              		.loc 1 387 11 is_stmt 0 view .LVU232
 638 002e 1A4D     		ldr	r5, .L37+4
 639              	.LVL85:
 640              		.loc 1 387 11 view .LVU233
 641 0030 AC46     		mov	ip, r5
 642              	.LVL86:
 643              		.loc 1 387 11 view .LVU234
 644 0032 6144     		add	r1, r1, ip
 645              	.LVL87:
 388:Drivers/STM32G0xx_HAL_Driver/Src/stm32g0xx_hal_exti.c ****   regval = (*regaddr & ~maskline);
 646              		.loc 1 388 3 is_stmt 1 view .LVU235
 647              		.loc 1 388 13 is_stmt 0 view .LVU236
 648 0034 0D68     		ldr	r5, [r1]
 649              		.loc 1 388 10 view .LVU237
 650 0036 9543     		bics	r5, r2
 651              	.LVL88:
 389:Drivers/STM32G0xx_HAL_Driver/Src/stm32g0xx_hal_exti.c ****   *regaddr = regval;
ARM GAS  C:\Users\tugru\AppData\Local\Temp\cc2Qf47L.s 			page 20


 652              		.loc 1 389 3 is_stmt 1 view .LVU238
 653              		.loc 1 389 12 is_stmt 0 view .LVU239
 654 0038 0D60     		str	r5, [r1]
 390:Drivers/STM32G0xx_HAL_Driver/Src/stm32g0xx_hal_exti.c **** 
 391:Drivers/STM32G0xx_HAL_Driver/Src/stm32g0xx_hal_exti.c ****   /* 3] Clear triggers in case of configurable lines */
 392:Drivers/STM32G0xx_HAL_Driver/Src/stm32g0xx_hal_exti.c ****   if ((hexti->Line & EXTI_CONFIG) != 0x00u)
 655              		.loc 1 392 3 is_stmt 1 view .LVU240
 656              		.loc 1 392 6 is_stmt 0 view .LVU241
 657 003a 0268     		ldr	r2, [r0]
 658              	.LVL89:
 659              		.loc 1 392 6 view .LVU242
 660 003c 9201     		lsls	r2, r2, #6
 661 003e 25D5     		bpl	.L34
 393:Drivers/STM32G0xx_HAL_Driver/Src/stm32g0xx_hal_exti.c ****   {
 394:Drivers/STM32G0xx_HAL_Driver/Src/stm32g0xx_hal_exti.c ****     regaddr = (&EXTI->RTSR1 + (EXTI_CONFIG_OFFSET * offset));
 662              		.loc 1 394 5 is_stmt 1 view .LVU243
 663              		.loc 1 394 29 is_stmt 0 view .LVU244
 664 0040 5B01     		lsls	r3, r3, #5
 665              	.LVL90:
 666              		.loc 1 394 13 view .LVU245
 667 0042 164A     		ldr	r2, .L37+8
 668 0044 9918     		adds	r1, r3, r2
 669              	.LVL91:
 395:Drivers/STM32G0xx_HAL_Driver/Src/stm32g0xx_hal_exti.c ****     regval = (*regaddr & ~maskline);
 670              		.loc 1 395 5 is_stmt 1 view .LVU246
 671              		.loc 1 395 15 is_stmt 0 view .LVU247
 672 0046 0A68     		ldr	r2, [r1]
 673              		.loc 1 395 12 view .LVU248
 674 0048 4546     		mov	r5, r8
 675              	.LVL92:
 676              		.loc 1 395 12 view .LVU249
 677 004a 2A40     		ands	r2, r5
 678              	.LVL93:
 396:Drivers/STM32G0xx_HAL_Driver/Src/stm32g0xx_hal_exti.c ****     *regaddr = regval;
 679              		.loc 1 396 5 is_stmt 1 view .LVU250
 680              		.loc 1 396 14 is_stmt 0 view .LVU251
 681 004c 0A60     		str	r2, [r1]
 397:Drivers/STM32G0xx_HAL_Driver/Src/stm32g0xx_hal_exti.c **** 
 398:Drivers/STM32G0xx_HAL_Driver/Src/stm32g0xx_hal_exti.c ****     regaddr = (&EXTI->FTSR1 + (EXTI_CONFIG_OFFSET * offset));
 682              		.loc 1 398 5 is_stmt 1 view .LVU252
 683              		.loc 1 398 13 is_stmt 0 view .LVU253
 684 004e 144A     		ldr	r2, .L37+12
 685              	.LVL94:
 686              		.loc 1 398 13 view .LVU254
 687 0050 9446     		mov	ip, r2
 688 0052 6344     		add	r3, r3, ip
 689              	.LVL95:
 399:Drivers/STM32G0xx_HAL_Driver/Src/stm32g0xx_hal_exti.c ****     regval = (*regaddr & ~maskline);
 690              		.loc 1 399 5 is_stmt 1 view .LVU255
 691              		.loc 1 399 15 is_stmt 0 view .LVU256
 692 0054 1A68     		ldr	r2, [r3]
 693              		.loc 1 399 12 view .LVU257
 694 0056 4746     		mov	r7, r8
 695 0058 1740     		ands	r7, r2
 696              	.LVL96:
 400:Drivers/STM32G0xx_HAL_Driver/Src/stm32g0xx_hal_exti.c ****     *regaddr = regval;
 697              		.loc 1 400 5 is_stmt 1 view .LVU258
ARM GAS  C:\Users\tugru\AppData\Local\Temp\cc2Qf47L.s 			page 21


 698              		.loc 1 400 14 is_stmt 0 view .LVU259
 699 005a 1F60     		str	r7, [r3]
 401:Drivers/STM32G0xx_HAL_Driver/Src/stm32g0xx_hal_exti.c **** 
 402:Drivers/STM32G0xx_HAL_Driver/Src/stm32g0xx_hal_exti.c ****     /* Get Gpio port selection for gpio lines */
 403:Drivers/STM32G0xx_HAL_Driver/Src/stm32g0xx_hal_exti.c ****     if ((hexti->Line & EXTI_GPIO) == EXTI_GPIO)
 700              		.loc 1 403 5 is_stmt 1 view .LVU260
 701              		.loc 1 403 15 is_stmt 0 view .LVU261
 702 005c 0368     		ldr	r3, [r0]
 703              	.LVL97:
 704              		.loc 1 403 22 view .LVU262
 705 005e C022     		movs	r2, #192
 706 0060 D204     		lsls	r2, r2, #19
 707 0062 1340     		ands	r3, r2
 708              		.loc 1 403 8 view .LVU263
 709 0064 9342     		cmp	r3, r2
 710 0066 01D0     		beq	.L36
 404:Drivers/STM32G0xx_HAL_Driver/Src/stm32g0xx_hal_exti.c ****     {
 405:Drivers/STM32G0xx_HAL_Driver/Src/stm32g0xx_hal_exti.c ****       assert_param(IS_EXTI_GPIO_PIN(linepos));
 406:Drivers/STM32G0xx_HAL_Driver/Src/stm32g0xx_hal_exti.c **** 
 407:Drivers/STM32G0xx_HAL_Driver/Src/stm32g0xx_hal_exti.c ****       regval = EXTI->EXTICR[linepos >> 2u];
 408:Drivers/STM32G0xx_HAL_Driver/Src/stm32g0xx_hal_exti.c ****       regval &= ~(EXTI_EXTICR1_EXTI0 << (EXTI_EXTICR1_EXTI1_Pos * (linepos & 0x03u)));
 409:Drivers/STM32G0xx_HAL_Driver/Src/stm32g0xx_hal_exti.c ****       EXTI->EXTICR[linepos >> 2u] = regval;
 410:Drivers/STM32G0xx_HAL_Driver/Src/stm32g0xx_hal_exti.c ****     }
 411:Drivers/STM32G0xx_HAL_Driver/Src/stm32g0xx_hal_exti.c ****   }
 412:Drivers/STM32G0xx_HAL_Driver/Src/stm32g0xx_hal_exti.c **** 
 413:Drivers/STM32G0xx_HAL_Driver/Src/stm32g0xx_hal_exti.c ****   return HAL_OK;
 711              		.loc 1 413 10 view .LVU264
 712 0068 0020     		movs	r0, #0
 713              	.LVL98:
 714              		.loc 1 413 10 view .LVU265
 715 006a 10E0     		b	.L32
 716              	.LVL99:
 717              	.L36:
 405:Drivers/STM32G0xx_HAL_Driver/Src/stm32g0xx_hal_exti.c **** 
 718              		.loc 1 405 7 is_stmt 1 view .LVU266
 407:Drivers/STM32G0xx_HAL_Driver/Src/stm32g0xx_hal_exti.c ****       regval &= ~(EXTI_EXTICR1_EXTI0 << (EXTI_EXTICR1_EXTI1_Pos * (linepos & 0x03u)));
 719              		.loc 1 407 7 view .LVU267
 407:Drivers/STM32G0xx_HAL_Driver/Src/stm32g0xx_hal_exti.c ****       regval &= ~(EXTI_EXTICR1_EXTI0 << (EXTI_EXTICR1_EXTI1_Pos * (linepos & 0x03u)));
 720              		.loc 1 407 37 is_stmt 0 view .LVU268
 721 006c A408     		lsrs	r4, r4, #2
 722              	.LVL100:
 407:Drivers/STM32G0xx_HAL_Driver/Src/stm32g0xx_hal_exti.c ****       regval &= ~(EXTI_EXTICR1_EXTI0 << (EXTI_EXTICR1_EXTI1_Pos * (linepos & 0x03u)));
 723              		.loc 1 407 14 view .LVU269
 724 006e 0B49     		ldr	r1, .L37+8
 725              	.LVL101:
 407:Drivers/STM32G0xx_HAL_Driver/Src/stm32g0xx_hal_exti.c ****       regval &= ~(EXTI_EXTICR1_EXTI0 << (EXTI_EXTICR1_EXTI1_Pos * (linepos & 0x03u)));
 726              		.loc 1 407 14 view .LVU270
 727 0070 1834     		adds	r4, r4, #24
 728 0072 A400     		lsls	r4, r4, #2
 729 0074 6258     		ldr	r2, [r4, r1]
 730              	.LVL102:
 408:Drivers/STM32G0xx_HAL_Driver/Src/stm32g0xx_hal_exti.c ****       EXTI->EXTICR[linepos >> 2u] = regval;
 731              		.loc 1 408 7 is_stmt 1 view .LVU271
 408:Drivers/STM32G0xx_HAL_Driver/Src/stm32g0xx_hal_exti.c ****       EXTI->EXTICR[linepos >> 2u] = regval;
 732              		.loc 1 408 76 is_stmt 0 view .LVU272
 733 0076 0323     		movs	r3, #3
 734 0078 1E40     		ands	r6, r3
ARM GAS  C:\Users\tugru\AppData\Local\Temp\cc2Qf47L.s 			page 22


 735              	.LVL103:
 408:Drivers/STM32G0xx_HAL_Driver/Src/stm32g0xx_hal_exti.c ****       EXTI->EXTICR[linepos >> 2u] = regval;
 736              		.loc 1 408 65 view .LVU273
 737 007a F600     		lsls	r6, r6, #3
 408:Drivers/STM32G0xx_HAL_Driver/Src/stm32g0xx_hal_exti.c ****       EXTI->EXTICR[linepos >> 2u] = regval;
 738              		.loc 1 408 38 view .LVU274
 739 007c 0433     		adds	r3, r3, #4
 740 007e B340     		lsls	r3, r3, r6
 408:Drivers/STM32G0xx_HAL_Driver/Src/stm32g0xx_hal_exti.c ****       EXTI->EXTICR[linepos >> 2u] = regval;
 741              		.loc 1 408 14 view .LVU275
 742 0080 9A43     		bics	r2, r3
 743              	.LVL104:
 409:Drivers/STM32G0xx_HAL_Driver/Src/stm32g0xx_hal_exti.c ****     }
 744              		.loc 1 409 7 is_stmt 1 view .LVU276
 409:Drivers/STM32G0xx_HAL_Driver/Src/stm32g0xx_hal_exti.c ****     }
 745              		.loc 1 409 35 is_stmt 0 view .LVU277
 746 0082 6250     		str	r2, [r4, r1]
 747              		.loc 1 413 10 view .LVU278
 748 0084 0020     		movs	r0, #0
 749              	.LVL105:
 750              		.loc 1 413 10 view .LVU279
 751 0086 02E0     		b	.L32
 752              	.LVL106:
 753              	.L33:
 370:Drivers/STM32G0xx_HAL_Driver/Src/stm32g0xx_hal_exti.c ****   }
 754              		.loc 1 370 12 view .LVU280
 755 0088 0120     		movs	r0, #1
 756              	.LVL107:
 370:Drivers/STM32G0xx_HAL_Driver/Src/stm32g0xx_hal_exti.c ****   }
 757              		.loc 1 370 12 view .LVU281
 758 008a 00E0     		b	.L32
 759              	.LVL108:
 760              	.L34:
 761              		.loc 1 413 10 view .LVU282
 762 008c 0020     		movs	r0, #0
 763              	.LVL109:
 764              	.L32:
 414:Drivers/STM32G0xx_HAL_Driver/Src/stm32g0xx_hal_exti.c **** }
 765              		.loc 1 414 1 view .LVU283
 766              		@ sp needed
 767 008e 80BC     		pop	{r7}
 768 0090 B846     		mov	r8, r7
 769 0092 F0BD     		pop	{r4, r5, r6, r7, pc}
 770              	.L38:
 771              		.align	2
 772              	.L37:
 773 0094 80180240 		.word	1073879168
 774 0098 84180240 		.word	1073879172
 775 009c 00180240 		.word	1073879040
 776 00a0 04180240 		.word	1073879044
 777              		.cfi_endproc
 778              	.LFE312:
 780              		.section	.text.HAL_EXTI_RegisterCallback,"ax",%progbits
 781              		.align	1
 782              		.global	HAL_EXTI_RegisterCallback
 783              		.syntax unified
 784              		.code	16
ARM GAS  C:\Users\tugru\AppData\Local\Temp\cc2Qf47L.s 			page 23


 785              		.thumb_func
 787              	HAL_EXTI_RegisterCallback:
 788              	.LVL110:
 789              	.LFB313:
 415:Drivers/STM32G0xx_HAL_Driver/Src/stm32g0xx_hal_exti.c **** 
 416:Drivers/STM32G0xx_HAL_Driver/Src/stm32g0xx_hal_exti.c **** 
 417:Drivers/STM32G0xx_HAL_Driver/Src/stm32g0xx_hal_exti.c **** /**
 418:Drivers/STM32G0xx_HAL_Driver/Src/stm32g0xx_hal_exti.c ****   * @brief  Register callback for a dedicaated Exti line.
 419:Drivers/STM32G0xx_HAL_Driver/Src/stm32g0xx_hal_exti.c ****   * @param  hexti Exti handle.
 420:Drivers/STM32G0xx_HAL_Driver/Src/stm32g0xx_hal_exti.c ****   * @param  CallbackID User callback identifier.
 421:Drivers/STM32G0xx_HAL_Driver/Src/stm32g0xx_hal_exti.c ****   *         This parameter can be one of @arg @ref EXTI_CallbackIDTypeDef values.
 422:Drivers/STM32G0xx_HAL_Driver/Src/stm32g0xx_hal_exti.c ****   * @param  pPendingCbfn function pointer to be stored as callback.
 423:Drivers/STM32G0xx_HAL_Driver/Src/stm32g0xx_hal_exti.c ****   * @retval HAL Status.
 424:Drivers/STM32G0xx_HAL_Driver/Src/stm32g0xx_hal_exti.c ****   */
 425:Drivers/STM32G0xx_HAL_Driver/Src/stm32g0xx_hal_exti.c **** HAL_StatusTypeDef HAL_EXTI_RegisterCallback(EXTI_HandleTypeDef *hexti, EXTI_CallbackIDTypeDef Callb
 426:Drivers/STM32G0xx_HAL_Driver/Src/stm32g0xx_hal_exti.c **** {
 790              		.loc 1 426 1 is_stmt 1 view -0
 791              		.cfi_startproc
 792              		@ args = 0, pretend = 0, frame = 0
 793              		@ frame_needed = 0, uses_anonymous_args = 0
 794              		@ link register save eliminated.
 427:Drivers/STM32G0xx_HAL_Driver/Src/stm32g0xx_hal_exti.c ****   HAL_StatusTypeDef status = HAL_OK;
 795              		.loc 1 427 3 view .LVU285
 428:Drivers/STM32G0xx_HAL_Driver/Src/stm32g0xx_hal_exti.c **** 
 429:Drivers/STM32G0xx_HAL_Driver/Src/stm32g0xx_hal_exti.c ****   switch (CallbackID)
 796              		.loc 1 429 3 view .LVU286
 797 0000 0129     		cmp	r1, #1
 798 0002 09D0     		beq	.L40
 799 0004 0229     		cmp	r1, #2
 800 0006 0AD0     		beq	.L41
 801 0008 0029     		cmp	r1, #0
 802 000a 01D0     		beq	.L44
 803 000c 0120     		movs	r0, #1
 804              	.LVL111:
 805              	.L42:
 430:Drivers/STM32G0xx_HAL_Driver/Src/stm32g0xx_hal_exti.c ****   {
 431:Drivers/STM32G0xx_HAL_Driver/Src/stm32g0xx_hal_exti.c ****     case  HAL_EXTI_COMMON_CB_ID:
 432:Drivers/STM32G0xx_HAL_Driver/Src/stm32g0xx_hal_exti.c ****       hexti->RisingCallback = pPendingCbfn;
 433:Drivers/STM32G0xx_HAL_Driver/Src/stm32g0xx_hal_exti.c ****       hexti->FallingCallback = pPendingCbfn;
 434:Drivers/STM32G0xx_HAL_Driver/Src/stm32g0xx_hal_exti.c ****       break;
 435:Drivers/STM32G0xx_HAL_Driver/Src/stm32g0xx_hal_exti.c **** 
 436:Drivers/STM32G0xx_HAL_Driver/Src/stm32g0xx_hal_exti.c ****     case  HAL_EXTI_RISING_CB_ID:
 437:Drivers/STM32G0xx_HAL_Driver/Src/stm32g0xx_hal_exti.c ****       hexti->RisingCallback = pPendingCbfn;
 438:Drivers/STM32G0xx_HAL_Driver/Src/stm32g0xx_hal_exti.c ****       break;
 439:Drivers/STM32G0xx_HAL_Driver/Src/stm32g0xx_hal_exti.c **** 
 440:Drivers/STM32G0xx_HAL_Driver/Src/stm32g0xx_hal_exti.c ****     case  HAL_EXTI_FALLING_CB_ID:
 441:Drivers/STM32G0xx_HAL_Driver/Src/stm32g0xx_hal_exti.c ****       hexti->FallingCallback = pPendingCbfn;
 442:Drivers/STM32G0xx_HAL_Driver/Src/stm32g0xx_hal_exti.c ****       break;
 443:Drivers/STM32G0xx_HAL_Driver/Src/stm32g0xx_hal_exti.c **** 
 444:Drivers/STM32G0xx_HAL_Driver/Src/stm32g0xx_hal_exti.c ****     default:
 445:Drivers/STM32G0xx_HAL_Driver/Src/stm32g0xx_hal_exti.c ****       status = HAL_ERROR;
 446:Drivers/STM32G0xx_HAL_Driver/Src/stm32g0xx_hal_exti.c ****       break;
 447:Drivers/STM32G0xx_HAL_Driver/Src/stm32g0xx_hal_exti.c ****   }
 448:Drivers/STM32G0xx_HAL_Driver/Src/stm32g0xx_hal_exti.c **** 
 449:Drivers/STM32G0xx_HAL_Driver/Src/stm32g0xx_hal_exti.c ****   return status;
 806              		.loc 1 449 3 view .LVU287
 450:Drivers/STM32G0xx_HAL_Driver/Src/stm32g0xx_hal_exti.c **** }
ARM GAS  C:\Users\tugru\AppData\Local\Temp\cc2Qf47L.s 			page 24


 807              		.loc 1 450 1 is_stmt 0 view .LVU288
 808              		@ sp needed
 809 000e 7047     		bx	lr
 810              	.LVL112:
 811              	.L44:
 432:Drivers/STM32G0xx_HAL_Driver/Src/stm32g0xx_hal_exti.c ****       hexti->FallingCallback = pPendingCbfn;
 812              		.loc 1 432 7 is_stmt 1 view .LVU289
 432:Drivers/STM32G0xx_HAL_Driver/Src/stm32g0xx_hal_exti.c ****       hexti->FallingCallback = pPendingCbfn;
 813              		.loc 1 432 29 is_stmt 0 view .LVU290
 814 0010 4260     		str	r2, [r0, #4]
 433:Drivers/STM32G0xx_HAL_Driver/Src/stm32g0xx_hal_exti.c ****       break;
 815              		.loc 1 433 7 is_stmt 1 view .LVU291
 433:Drivers/STM32G0xx_HAL_Driver/Src/stm32g0xx_hal_exti.c ****       break;
 816              		.loc 1 433 30 is_stmt 0 view .LVU292
 817 0012 8260     		str	r2, [r0, #8]
 434:Drivers/STM32G0xx_HAL_Driver/Src/stm32g0xx_hal_exti.c **** 
 818              		.loc 1 434 7 is_stmt 1 view .LVU293
 427:Drivers/STM32G0xx_HAL_Driver/Src/stm32g0xx_hal_exti.c **** 
 819              		.loc 1 427 21 is_stmt 0 view .LVU294
 820 0014 0800     		movs	r0, r1
 821              	.LVL113:
 434:Drivers/STM32G0xx_HAL_Driver/Src/stm32g0xx_hal_exti.c **** 
 822              		.loc 1 434 7 view .LVU295
 823 0016 FAE7     		b	.L42
 824              	.LVL114:
 825              	.L40:
 437:Drivers/STM32G0xx_HAL_Driver/Src/stm32g0xx_hal_exti.c ****       break;
 826              		.loc 1 437 7 is_stmt 1 view .LVU296
 437:Drivers/STM32G0xx_HAL_Driver/Src/stm32g0xx_hal_exti.c ****       break;
 827              		.loc 1 437 29 is_stmt 0 view .LVU297
 828 0018 4260     		str	r2, [r0, #4]
 438:Drivers/STM32G0xx_HAL_Driver/Src/stm32g0xx_hal_exti.c **** 
 829              		.loc 1 438 7 is_stmt 1 view .LVU298
 427:Drivers/STM32G0xx_HAL_Driver/Src/stm32g0xx_hal_exti.c **** 
 830              		.loc 1 427 21 is_stmt 0 view .LVU299
 831 001a 0020     		movs	r0, #0
 832              	.LVL115:
 438:Drivers/STM32G0xx_HAL_Driver/Src/stm32g0xx_hal_exti.c **** 
 833              		.loc 1 438 7 view .LVU300
 834 001c F7E7     		b	.L42
 835              	.LVL116:
 836              	.L41:
 441:Drivers/STM32G0xx_HAL_Driver/Src/stm32g0xx_hal_exti.c ****       break;
 837              		.loc 1 441 7 is_stmt 1 view .LVU301
 441:Drivers/STM32G0xx_HAL_Driver/Src/stm32g0xx_hal_exti.c ****       break;
 838              		.loc 1 441 30 is_stmt 0 view .LVU302
 839 001e 8260     		str	r2, [r0, #8]
 442:Drivers/STM32G0xx_HAL_Driver/Src/stm32g0xx_hal_exti.c **** 
 840              		.loc 1 442 7 is_stmt 1 view .LVU303
 427:Drivers/STM32G0xx_HAL_Driver/Src/stm32g0xx_hal_exti.c **** 
 841              		.loc 1 427 21 is_stmt 0 view .LVU304
 842 0020 0020     		movs	r0, #0
 843              	.LVL117:
 442:Drivers/STM32G0xx_HAL_Driver/Src/stm32g0xx_hal_exti.c **** 
 844              		.loc 1 442 7 view .LVU305
 845 0022 F4E7     		b	.L42
 846              		.cfi_endproc
ARM GAS  C:\Users\tugru\AppData\Local\Temp\cc2Qf47L.s 			page 25


 847              	.LFE313:
 849              		.section	.text.HAL_EXTI_GetHandle,"ax",%progbits
 850              		.align	1
 851              		.global	HAL_EXTI_GetHandle
 852              		.syntax unified
 853              		.code	16
 854              		.thumb_func
 856              	HAL_EXTI_GetHandle:
 857              	.LVL118:
 858              	.LFB314:
 451:Drivers/STM32G0xx_HAL_Driver/Src/stm32g0xx_hal_exti.c **** 
 452:Drivers/STM32G0xx_HAL_Driver/Src/stm32g0xx_hal_exti.c **** 
 453:Drivers/STM32G0xx_HAL_Driver/Src/stm32g0xx_hal_exti.c **** /**
 454:Drivers/STM32G0xx_HAL_Driver/Src/stm32g0xx_hal_exti.c ****   * @brief  Store line number as handle private field.
 455:Drivers/STM32G0xx_HAL_Driver/Src/stm32g0xx_hal_exti.c ****   * @param  hexti Exti handle.
 456:Drivers/STM32G0xx_HAL_Driver/Src/stm32g0xx_hal_exti.c ****   * @param  ExtiLine Exti line number.
 457:Drivers/STM32G0xx_HAL_Driver/Src/stm32g0xx_hal_exti.c ****   *         This parameter can be from 0 to @ref EXTI_LINE_NB.
 458:Drivers/STM32G0xx_HAL_Driver/Src/stm32g0xx_hal_exti.c ****   * @retval HAL Status.
 459:Drivers/STM32G0xx_HAL_Driver/Src/stm32g0xx_hal_exti.c ****   */
 460:Drivers/STM32G0xx_HAL_Driver/Src/stm32g0xx_hal_exti.c **** HAL_StatusTypeDef HAL_EXTI_GetHandle(EXTI_HandleTypeDef *hexti, uint32_t ExtiLine)
 461:Drivers/STM32G0xx_HAL_Driver/Src/stm32g0xx_hal_exti.c **** {
 859              		.loc 1 461 1 is_stmt 1 view -0
 860              		.cfi_startproc
 861              		@ args = 0, pretend = 0, frame = 0
 862              		@ frame_needed = 0, uses_anonymous_args = 0
 863              		@ link register save eliminated.
 462:Drivers/STM32G0xx_HAL_Driver/Src/stm32g0xx_hal_exti.c ****   /* Check the parameters */
 463:Drivers/STM32G0xx_HAL_Driver/Src/stm32g0xx_hal_exti.c ****   assert_param(IS_EXTI_LINE(ExtiLine));
 864              		.loc 1 463 3 view .LVU307
 464:Drivers/STM32G0xx_HAL_Driver/Src/stm32g0xx_hal_exti.c **** 
 465:Drivers/STM32G0xx_HAL_Driver/Src/stm32g0xx_hal_exti.c ****   /* Check null pointer */
 466:Drivers/STM32G0xx_HAL_Driver/Src/stm32g0xx_hal_exti.c ****   if (hexti == NULL)
 865              		.loc 1 466 3 view .LVU308
 866              		.loc 1 466 6 is_stmt 0 view .LVU309
 867 0000 0028     		cmp	r0, #0
 868 0002 02D0     		beq	.L47
 467:Drivers/STM32G0xx_HAL_Driver/Src/stm32g0xx_hal_exti.c ****   {
 468:Drivers/STM32G0xx_HAL_Driver/Src/stm32g0xx_hal_exti.c ****     return HAL_ERROR;
 469:Drivers/STM32G0xx_HAL_Driver/Src/stm32g0xx_hal_exti.c ****   }
 470:Drivers/STM32G0xx_HAL_Driver/Src/stm32g0xx_hal_exti.c ****   else
 471:Drivers/STM32G0xx_HAL_Driver/Src/stm32g0xx_hal_exti.c ****   {
 472:Drivers/STM32G0xx_HAL_Driver/Src/stm32g0xx_hal_exti.c ****     /* Store line number as handle private field */
 473:Drivers/STM32G0xx_HAL_Driver/Src/stm32g0xx_hal_exti.c ****     hexti->Line = ExtiLine;
 869              		.loc 1 473 5 is_stmt 1 view .LVU310
 870              		.loc 1 473 17 is_stmt 0 view .LVU311
 871 0004 0160     		str	r1, [r0]
 474:Drivers/STM32G0xx_HAL_Driver/Src/stm32g0xx_hal_exti.c **** 
 475:Drivers/STM32G0xx_HAL_Driver/Src/stm32g0xx_hal_exti.c ****     return HAL_OK;
 872              		.loc 1 475 5 is_stmt 1 view .LVU312
 873              		.loc 1 475 12 is_stmt 0 view .LVU313
 874 0006 0020     		movs	r0, #0
 875              	.LVL119:
 876              	.L46:
 476:Drivers/STM32G0xx_HAL_Driver/Src/stm32g0xx_hal_exti.c ****   }
 477:Drivers/STM32G0xx_HAL_Driver/Src/stm32g0xx_hal_exti.c **** }
 877              		.loc 1 477 1 view .LVU314
 878              		@ sp needed
ARM GAS  C:\Users\tugru\AppData\Local\Temp\cc2Qf47L.s 			page 26


 879 0008 7047     		bx	lr
 880              	.LVL120:
 881              	.L47:
 468:Drivers/STM32G0xx_HAL_Driver/Src/stm32g0xx_hal_exti.c ****   }
 882              		.loc 1 468 12 view .LVU315
 883 000a 0120     		movs	r0, #1
 884              	.LVL121:
 468:Drivers/STM32G0xx_HAL_Driver/Src/stm32g0xx_hal_exti.c ****   }
 885              		.loc 1 468 12 view .LVU316
 886 000c FCE7     		b	.L46
 887              		.cfi_endproc
 888              	.LFE314:
 890              		.section	.text.HAL_EXTI_IRQHandler,"ax",%progbits
 891              		.align	1
 892              		.global	HAL_EXTI_IRQHandler
 893              		.syntax unified
 894              		.code	16
 895              		.thumb_func
 897              	HAL_EXTI_IRQHandler:
 898              	.LVL122:
 899              	.LFB315:
 478:Drivers/STM32G0xx_HAL_Driver/Src/stm32g0xx_hal_exti.c **** 
 479:Drivers/STM32G0xx_HAL_Driver/Src/stm32g0xx_hal_exti.c **** 
 480:Drivers/STM32G0xx_HAL_Driver/Src/stm32g0xx_hal_exti.c **** /**
 481:Drivers/STM32G0xx_HAL_Driver/Src/stm32g0xx_hal_exti.c ****   * @}
 482:Drivers/STM32G0xx_HAL_Driver/Src/stm32g0xx_hal_exti.c ****   */
 483:Drivers/STM32G0xx_HAL_Driver/Src/stm32g0xx_hal_exti.c **** 
 484:Drivers/STM32G0xx_HAL_Driver/Src/stm32g0xx_hal_exti.c **** /** @addtogroup EXTI_Exported_Functions_Group2
 485:Drivers/STM32G0xx_HAL_Driver/Src/stm32g0xx_hal_exti.c ****  *  @brief EXTI IO functions.
 486:Drivers/STM32G0xx_HAL_Driver/Src/stm32g0xx_hal_exti.c ****  *
 487:Drivers/STM32G0xx_HAL_Driver/Src/stm32g0xx_hal_exti.c **** @verbatim
 488:Drivers/STM32G0xx_HAL_Driver/Src/stm32g0xx_hal_exti.c ****  ===============================================================================
 489:Drivers/STM32G0xx_HAL_Driver/Src/stm32g0xx_hal_exti.c ****                        ##### IO operation functions #####
 490:Drivers/STM32G0xx_HAL_Driver/Src/stm32g0xx_hal_exti.c ****  ===============================================================================
 491:Drivers/STM32G0xx_HAL_Driver/Src/stm32g0xx_hal_exti.c **** 
 492:Drivers/STM32G0xx_HAL_Driver/Src/stm32g0xx_hal_exti.c **** @endverbatim
 493:Drivers/STM32G0xx_HAL_Driver/Src/stm32g0xx_hal_exti.c ****   * @{
 494:Drivers/STM32G0xx_HAL_Driver/Src/stm32g0xx_hal_exti.c ****   */
 495:Drivers/STM32G0xx_HAL_Driver/Src/stm32g0xx_hal_exti.c **** 
 496:Drivers/STM32G0xx_HAL_Driver/Src/stm32g0xx_hal_exti.c **** /**
 497:Drivers/STM32G0xx_HAL_Driver/Src/stm32g0xx_hal_exti.c ****   * @brief  Handle EXTI interrupt request.
 498:Drivers/STM32G0xx_HAL_Driver/Src/stm32g0xx_hal_exti.c ****   * @param  hexti Exti handle.
 499:Drivers/STM32G0xx_HAL_Driver/Src/stm32g0xx_hal_exti.c ****   * @retval none.
 500:Drivers/STM32G0xx_HAL_Driver/Src/stm32g0xx_hal_exti.c ****   */
 501:Drivers/STM32G0xx_HAL_Driver/Src/stm32g0xx_hal_exti.c **** void HAL_EXTI_IRQHandler(EXTI_HandleTypeDef *hexti)
 502:Drivers/STM32G0xx_HAL_Driver/Src/stm32g0xx_hal_exti.c **** {
 900              		.loc 1 502 1 is_stmt 1 view -0
 901              		.cfi_startproc
 902              		@ args = 0, pretend = 0, frame = 0
 903              		@ frame_needed = 0, uses_anonymous_args = 0
 904              		.loc 1 502 1 is_stmt 0 view .LVU318
 905 0000 70B5     		push	{r4, r5, r6, lr}
 906              	.LCFI4:
 907              		.cfi_def_cfa_offset 16
 908              		.cfi_offset 4, -16
 909              		.cfi_offset 5, -12
 910              		.cfi_offset 6, -8
ARM GAS  C:\Users\tugru\AppData\Local\Temp\cc2Qf47L.s 			page 27


 911              		.cfi_offset 14, -4
 912 0002 0600     		movs	r6, r0
 503:Drivers/STM32G0xx_HAL_Driver/Src/stm32g0xx_hal_exti.c ****   __IO uint32_t *regaddr;
 913              		.loc 1 503 3 is_stmt 1 view .LVU319
 504:Drivers/STM32G0xx_HAL_Driver/Src/stm32g0xx_hal_exti.c ****   uint32_t regval;
 914              		.loc 1 504 3 view .LVU320
 505:Drivers/STM32G0xx_HAL_Driver/Src/stm32g0xx_hal_exti.c ****   uint32_t maskline;
 915              		.loc 1 505 3 view .LVU321
 506:Drivers/STM32G0xx_HAL_Driver/Src/stm32g0xx_hal_exti.c ****   uint32_t offset;
 916              		.loc 1 506 3 view .LVU322
 507:Drivers/STM32G0xx_HAL_Driver/Src/stm32g0xx_hal_exti.c **** 
 508:Drivers/STM32G0xx_HAL_Driver/Src/stm32g0xx_hal_exti.c ****   /* Compute line register offset and line mask */
 509:Drivers/STM32G0xx_HAL_Driver/Src/stm32g0xx_hal_exti.c ****   offset = ((hexti->Line & EXTI_REG_MASK) >> EXTI_REG_SHIFT);
 917              		.loc 1 509 3 view .LVU323
 918              		.loc 1 509 19 is_stmt 0 view .LVU324
 919 0004 0268     		ldr	r2, [r0]
 920              		.loc 1 509 43 view .LVU325
 921 0006 140C     		lsrs	r4, r2, #16
 922              		.loc 1 509 10 view .LVU326
 923 0008 0125     		movs	r5, #1
 924 000a 2C40     		ands	r4, r5
 925              	.LVL123:
 510:Drivers/STM32G0xx_HAL_Driver/Src/stm32g0xx_hal_exti.c ****   maskline = (1uL << (hexti->Line & EXTI_PIN_MASK));
 926              		.loc 1 510 3 is_stmt 1 view .LVU327
 927              		.loc 1 510 35 is_stmt 0 view .LVU328
 928 000c 1F23     		movs	r3, #31
 929 000e 1340     		ands	r3, r2
 930              		.loc 1 510 12 view .LVU329
 931 0010 9D40     		lsls	r5, r5, r3
 932              	.LVL124:
 511:Drivers/STM32G0xx_HAL_Driver/Src/stm32g0xx_hal_exti.c **** 
 512:Drivers/STM32G0xx_HAL_Driver/Src/stm32g0xx_hal_exti.c ****   /* Get rising edge pending bit  */
 513:Drivers/STM32G0xx_HAL_Driver/Src/stm32g0xx_hal_exti.c ****   regaddr = (&EXTI->RPR1 + (EXTI_CONFIG_OFFSET * offset));
 933              		.loc 1 513 3 is_stmt 1 view .LVU330
 934              		.loc 1 513 26 is_stmt 0 view .LVU331
 935 0012 6401     		lsls	r4, r4, #5
 936              	.LVL125:
 937              		.loc 1 513 11 view .LVU332
 938 0014 0A4B     		ldr	r3, .L51
 939 0016 E318     		adds	r3, r4, r3
 940              	.LVL126:
 514:Drivers/STM32G0xx_HAL_Driver/Src/stm32g0xx_hal_exti.c ****   regval = (*regaddr & maskline);
 941              		.loc 1 514 3 is_stmt 1 view .LVU333
 942              		.loc 1 514 13 is_stmt 0 view .LVU334
 943 0018 1A68     		ldr	r2, [r3]
 944              	.LVL127:
 515:Drivers/STM32G0xx_HAL_Driver/Src/stm32g0xx_hal_exti.c **** 
 516:Drivers/STM32G0xx_HAL_Driver/Src/stm32g0xx_hal_exti.c ****   if (regval != 0x00u)
 945              		.loc 1 516 3 is_stmt 1 view .LVU335
 946              		.loc 1 516 6 is_stmt 0 view .LVU336
 947 001a 1542     		tst	r5, r2
 948 001c 04D0     		beq	.L49
 517:Drivers/STM32G0xx_HAL_Driver/Src/stm32g0xx_hal_exti.c ****   {
 518:Drivers/STM32G0xx_HAL_Driver/Src/stm32g0xx_hal_exti.c ****     /* Clear pending bit */
 519:Drivers/STM32G0xx_HAL_Driver/Src/stm32g0xx_hal_exti.c ****     *regaddr = maskline;
 949              		.loc 1 519 5 is_stmt 1 view .LVU337
 950              		.loc 1 519 14 is_stmt 0 view .LVU338
ARM GAS  C:\Users\tugru\AppData\Local\Temp\cc2Qf47L.s 			page 28


 951 001e 1D60     		str	r5, [r3]
 952              	.LVL128:
 520:Drivers/STM32G0xx_HAL_Driver/Src/stm32g0xx_hal_exti.c **** 
 521:Drivers/STM32G0xx_HAL_Driver/Src/stm32g0xx_hal_exti.c ****     /* Call rising callback */
 522:Drivers/STM32G0xx_HAL_Driver/Src/stm32g0xx_hal_exti.c ****     if (hexti->RisingCallback != NULL)
 953              		.loc 1 522 5 is_stmt 1 view .LVU339
 954              		.loc 1 522 14 is_stmt 0 view .LVU340
 955 0020 4368     		ldr	r3, [r0, #4]
 956              	.LVL129:
 957              		.loc 1 522 8 view .LVU341
 958 0022 002B     		cmp	r3, #0
 959 0024 00D0     		beq	.L49
 523:Drivers/STM32G0xx_HAL_Driver/Src/stm32g0xx_hal_exti.c ****     {
 524:Drivers/STM32G0xx_HAL_Driver/Src/stm32g0xx_hal_exti.c ****       hexti->RisingCallback();
 960              		.loc 1 524 7 is_stmt 1 view .LVU342
 961 0026 9847     		blx	r3
 962              	.LVL130:
 963              	.L49:
 525:Drivers/STM32G0xx_HAL_Driver/Src/stm32g0xx_hal_exti.c ****     }
 526:Drivers/STM32G0xx_HAL_Driver/Src/stm32g0xx_hal_exti.c ****   }
 527:Drivers/STM32G0xx_HAL_Driver/Src/stm32g0xx_hal_exti.c **** 
 528:Drivers/STM32G0xx_HAL_Driver/Src/stm32g0xx_hal_exti.c ****   /* Get falling edge pending bit  */
 529:Drivers/STM32G0xx_HAL_Driver/Src/stm32g0xx_hal_exti.c ****   regaddr = (&EXTI->FPR1 + (EXTI_CONFIG_OFFSET * offset));
 964              		.loc 1 529 3 view .LVU343
 965              		.loc 1 529 11 is_stmt 0 view .LVU344
 966 0028 064B     		ldr	r3, .L51+4
 967 002a 9C46     		mov	ip, r3
 968 002c 6444     		add	r4, r4, ip
 969              	.LVL131:
 530:Drivers/STM32G0xx_HAL_Driver/Src/stm32g0xx_hal_exti.c ****   regval = (*regaddr & maskline);
 970              		.loc 1 530 3 is_stmt 1 view .LVU345
 971              		.loc 1 530 13 is_stmt 0 view .LVU346
 972 002e 2368     		ldr	r3, [r4]
 973              	.LVL132:
 531:Drivers/STM32G0xx_HAL_Driver/Src/stm32g0xx_hal_exti.c **** 
 532:Drivers/STM32G0xx_HAL_Driver/Src/stm32g0xx_hal_exti.c ****   if (regval != 0x00u)
 974              		.loc 1 532 3 is_stmt 1 view .LVU347
 975              		.loc 1 532 6 is_stmt 0 view .LVU348
 976 0030 1D42     		tst	r5, r3
 977 0032 04D0     		beq	.L48
 533:Drivers/STM32G0xx_HAL_Driver/Src/stm32g0xx_hal_exti.c ****   {
 534:Drivers/STM32G0xx_HAL_Driver/Src/stm32g0xx_hal_exti.c ****     /* Clear pending bit */
 535:Drivers/STM32G0xx_HAL_Driver/Src/stm32g0xx_hal_exti.c ****     *regaddr = maskline;
 978              		.loc 1 535 5 is_stmt 1 view .LVU349
 979              		.loc 1 535 14 is_stmt 0 view .LVU350
 980 0034 2560     		str	r5, [r4]
 536:Drivers/STM32G0xx_HAL_Driver/Src/stm32g0xx_hal_exti.c **** 
 537:Drivers/STM32G0xx_HAL_Driver/Src/stm32g0xx_hal_exti.c ****     /* Call rising callback */
 538:Drivers/STM32G0xx_HAL_Driver/Src/stm32g0xx_hal_exti.c ****     if (hexti->FallingCallback != NULL)
 981              		.loc 1 538 5 is_stmt 1 view .LVU351
 982              		.loc 1 538 14 is_stmt 0 view .LVU352
 983 0036 B368     		ldr	r3, [r6, #8]
 984              	.LVL133:
 985              		.loc 1 538 8 view .LVU353
 986 0038 002B     		cmp	r3, #0
 987 003a 00D0     		beq	.L48
 539:Drivers/STM32G0xx_HAL_Driver/Src/stm32g0xx_hal_exti.c ****     {
ARM GAS  C:\Users\tugru\AppData\Local\Temp\cc2Qf47L.s 			page 29


 540:Drivers/STM32G0xx_HAL_Driver/Src/stm32g0xx_hal_exti.c ****       hexti->FallingCallback();
 988              		.loc 1 540 7 is_stmt 1 view .LVU354
 989 003c 9847     		blx	r3
 990              	.LVL134:
 991              	.L48:
 541:Drivers/STM32G0xx_HAL_Driver/Src/stm32g0xx_hal_exti.c ****     }
 542:Drivers/STM32G0xx_HAL_Driver/Src/stm32g0xx_hal_exti.c ****   }
 543:Drivers/STM32G0xx_HAL_Driver/Src/stm32g0xx_hal_exti.c **** }
 992              		.loc 1 543 1 is_stmt 0 view .LVU355
 993              		@ sp needed
 994              	.LVL135:
 995              	.LVL136:
 996              	.LVL137:
 997              		.loc 1 543 1 view .LVU356
 998 003e 70BD     		pop	{r4, r5, r6, pc}
 999              	.L52:
 1000              		.align	2
 1001              	.L51:
 1002 0040 0C180240 		.word	1073879052
 1003 0044 10180240 		.word	1073879056
 1004              		.cfi_endproc
 1005              	.LFE315:
 1007              		.section	.text.HAL_EXTI_GetPending,"ax",%progbits
 1008              		.align	1
 1009              		.global	HAL_EXTI_GetPending
 1010              		.syntax unified
 1011              		.code	16
 1012              		.thumb_func
 1014              	HAL_EXTI_GetPending:
 1015              	.LVL138:
 1016              	.LFB316:
 544:Drivers/STM32G0xx_HAL_Driver/Src/stm32g0xx_hal_exti.c **** 
 545:Drivers/STM32G0xx_HAL_Driver/Src/stm32g0xx_hal_exti.c **** 
 546:Drivers/STM32G0xx_HAL_Driver/Src/stm32g0xx_hal_exti.c **** /**
 547:Drivers/STM32G0xx_HAL_Driver/Src/stm32g0xx_hal_exti.c ****   * @brief  Get interrupt pending bit of a dedicated line.
 548:Drivers/STM32G0xx_HAL_Driver/Src/stm32g0xx_hal_exti.c ****   * @param  hexti Exti handle.
 549:Drivers/STM32G0xx_HAL_Driver/Src/stm32g0xx_hal_exti.c ****   * @param  Edge Specify which pending edge as to be checked.
 550:Drivers/STM32G0xx_HAL_Driver/Src/stm32g0xx_hal_exti.c ****   *         This parameter can be one of the following values:
 551:Drivers/STM32G0xx_HAL_Driver/Src/stm32g0xx_hal_exti.c ****   *           @arg @ref EXTI_TRIGGER_RISING
 552:Drivers/STM32G0xx_HAL_Driver/Src/stm32g0xx_hal_exti.c ****   *           @arg @ref EXTI_TRIGGER_FALLING
 553:Drivers/STM32G0xx_HAL_Driver/Src/stm32g0xx_hal_exti.c ****   * @retval 1 if interrupt is pending else 0.
 554:Drivers/STM32G0xx_HAL_Driver/Src/stm32g0xx_hal_exti.c ****   */
 555:Drivers/STM32G0xx_HAL_Driver/Src/stm32g0xx_hal_exti.c **** uint32_t HAL_EXTI_GetPending(EXTI_HandleTypeDef *hexti, uint32_t Edge)
 556:Drivers/STM32G0xx_HAL_Driver/Src/stm32g0xx_hal_exti.c **** {
 1017              		.loc 1 556 1 is_stmt 1 view -0
 1018              		.cfi_startproc
 1019              		@ args = 0, pretend = 0, frame = 0
 1020              		@ frame_needed = 0, uses_anonymous_args = 0
 1021              		.loc 1 556 1 is_stmt 0 view .LVU358
 1022 0000 10B5     		push	{r4, lr}
 1023              	.LCFI5:
 1024              		.cfi_def_cfa_offset 8
 1025              		.cfi_offset 4, -8
 1026              		.cfi_offset 14, -4
 557:Drivers/STM32G0xx_HAL_Driver/Src/stm32g0xx_hal_exti.c ****   __IO uint32_t *regaddr;
 1027              		.loc 1 557 3 is_stmt 1 view .LVU359
 558:Drivers/STM32G0xx_HAL_Driver/Src/stm32g0xx_hal_exti.c ****   uint32_t regval;
ARM GAS  C:\Users\tugru\AppData\Local\Temp\cc2Qf47L.s 			page 30


 1028              		.loc 1 558 3 view .LVU360
 559:Drivers/STM32G0xx_HAL_Driver/Src/stm32g0xx_hal_exti.c ****   uint32_t linepos;
 1029              		.loc 1 559 3 view .LVU361
 560:Drivers/STM32G0xx_HAL_Driver/Src/stm32g0xx_hal_exti.c ****   uint32_t maskline;
 1030              		.loc 1 560 3 view .LVU362
 561:Drivers/STM32G0xx_HAL_Driver/Src/stm32g0xx_hal_exti.c ****   uint32_t offset;
 1031              		.loc 1 561 3 view .LVU363
 562:Drivers/STM32G0xx_HAL_Driver/Src/stm32g0xx_hal_exti.c **** 
 563:Drivers/STM32G0xx_HAL_Driver/Src/stm32g0xx_hal_exti.c ****   /* Check parameters */
 564:Drivers/STM32G0xx_HAL_Driver/Src/stm32g0xx_hal_exti.c ****   assert_param(IS_EXTI_LINE(hexti->Line));
 1032              		.loc 1 564 3 view .LVU364
 565:Drivers/STM32G0xx_HAL_Driver/Src/stm32g0xx_hal_exti.c ****   assert_param(IS_EXTI_CONFIG_LINE(hexti->Line));
 1033              		.loc 1 565 3 view .LVU365
 566:Drivers/STM32G0xx_HAL_Driver/Src/stm32g0xx_hal_exti.c ****   assert_param(IS_EXTI_PENDING_EDGE(Edge));
 1034              		.loc 1 566 3 view .LVU366
 567:Drivers/STM32G0xx_HAL_Driver/Src/stm32g0xx_hal_exti.c **** 
 568:Drivers/STM32G0xx_HAL_Driver/Src/stm32g0xx_hal_exti.c ****   /* compute line register offset and line mask */
 569:Drivers/STM32G0xx_HAL_Driver/Src/stm32g0xx_hal_exti.c ****   offset = ((hexti->Line & EXTI_REG_MASK) >> EXTI_REG_SHIFT);
 1035              		.loc 1 569 3 view .LVU367
 1036              		.loc 1 569 19 is_stmt 0 view .LVU368
 1037 0002 0468     		ldr	r4, [r0]
 1038              		.loc 1 569 43 view .LVU369
 1039 0004 230C     		lsrs	r3, r4, #16
 1040              		.loc 1 569 10 view .LVU370
 1041 0006 0120     		movs	r0, #1
 1042              	.LVL139:
 1043              		.loc 1 569 10 view .LVU371
 1044 0008 0340     		ands	r3, r0
 1045              	.LVL140:
 570:Drivers/STM32G0xx_HAL_Driver/Src/stm32g0xx_hal_exti.c ****   linepos = (hexti->Line & EXTI_PIN_MASK);
 1046              		.loc 1 570 3 is_stmt 1 view .LVU372
 1047              		.loc 1 570 11 is_stmt 0 view .LVU373
 1048 000a 1F22     		movs	r2, #31
 1049 000c 2240     		ands	r2, r4
 1050              	.LVL141:
 571:Drivers/STM32G0xx_HAL_Driver/Src/stm32g0xx_hal_exti.c ****   maskline = (1uL << linepos);
 1051              		.loc 1 571 3 is_stmt 1 view .LVU374
 1052              		.loc 1 571 12 is_stmt 0 view .LVU375
 1053 000e 9040     		lsls	r0, r0, r2
 1054              	.LVL142:
 572:Drivers/STM32G0xx_HAL_Driver/Src/stm32g0xx_hal_exti.c **** 
 573:Drivers/STM32G0xx_HAL_Driver/Src/stm32g0xx_hal_exti.c ****   if (Edge != EXTI_TRIGGER_RISING)
 1055              		.loc 1 573 3 is_stmt 1 view .LVU376
 1056              		.loc 1 573 6 is_stmt 0 view .LVU377
 1057 0010 0129     		cmp	r1, #1
 1058 0012 07D0     		beq	.L54
 574:Drivers/STM32G0xx_HAL_Driver/Src/stm32g0xx_hal_exti.c ****   {
 575:Drivers/STM32G0xx_HAL_Driver/Src/stm32g0xx_hal_exti.c ****     /* Get falling edge pending bit */
 576:Drivers/STM32G0xx_HAL_Driver/Src/stm32g0xx_hal_exti.c ****     regaddr = (&EXTI->FPR1 + (EXTI_CONFIG_OFFSET * offset));
 1059              		.loc 1 576 5 is_stmt 1 view .LVU378
 1060              		.loc 1 576 28 is_stmt 0 view .LVU379
 1061 0014 5B01     		lsls	r3, r3, #5
 1062              	.LVL143:
 1063              		.loc 1 576 13 view .LVU380
 1064 0016 0649     		ldr	r1, .L56
 1065              	.LVL144:
 1066              		.loc 1 576 13 view .LVU381
ARM GAS  C:\Users\tugru\AppData\Local\Temp\cc2Qf47L.s 			page 31


 1067 0018 8C46     		mov	ip, r1
 1068 001a 6344     		add	r3, r3, ip
 1069              	.LVL145:
 1070              	.L55:
 577:Drivers/STM32G0xx_HAL_Driver/Src/stm32g0xx_hal_exti.c ****   }
 578:Drivers/STM32G0xx_HAL_Driver/Src/stm32g0xx_hal_exti.c ****   else
 579:Drivers/STM32G0xx_HAL_Driver/Src/stm32g0xx_hal_exti.c ****   {
 580:Drivers/STM32G0xx_HAL_Driver/Src/stm32g0xx_hal_exti.c ****     /* Get rising edge pending bit */
 581:Drivers/STM32G0xx_HAL_Driver/Src/stm32g0xx_hal_exti.c ****     regaddr = (&EXTI->RPR1 + (EXTI_CONFIG_OFFSET * offset));
 582:Drivers/STM32G0xx_HAL_Driver/Src/stm32g0xx_hal_exti.c ****   }
 583:Drivers/STM32G0xx_HAL_Driver/Src/stm32g0xx_hal_exti.c **** 
 584:Drivers/STM32G0xx_HAL_Driver/Src/stm32g0xx_hal_exti.c ****   /* return 1 if bit is set else 0 */
 585:Drivers/STM32G0xx_HAL_Driver/Src/stm32g0xx_hal_exti.c ****   regval = ((*regaddr & maskline) >> linepos);
 1071              		.loc 1 585 3 is_stmt 1 view .LVU382
 1072              		.loc 1 585 14 is_stmt 0 view .LVU383
 1073 001c 1B68     		ldr	r3, [r3]
 1074              	.LVL146:
 1075              		.loc 1 585 23 view .LVU384
 1076 001e 1840     		ands	r0, r3
 1077              	.LVL147:
 1078              		.loc 1 585 10 view .LVU385
 1079 0020 D040     		lsrs	r0, r0, r2
 1080              	.LVL148:
 586:Drivers/STM32G0xx_HAL_Driver/Src/stm32g0xx_hal_exti.c ****   return regval;
 1081              		.loc 1 586 3 is_stmt 1 view .LVU386
 587:Drivers/STM32G0xx_HAL_Driver/Src/stm32g0xx_hal_exti.c **** }
 1082              		.loc 1 587 1 is_stmt 0 view .LVU387
 1083              		@ sp needed
 1084              	.LVL149:
 1085              		.loc 1 587 1 view .LVU388
 1086 0022 10BD     		pop	{r4, pc}
 1087              	.LVL150:
 1088              	.L54:
 581:Drivers/STM32G0xx_HAL_Driver/Src/stm32g0xx_hal_exti.c ****   }
 1089              		.loc 1 581 5 is_stmt 1 view .LVU389
 581:Drivers/STM32G0xx_HAL_Driver/Src/stm32g0xx_hal_exti.c ****   }
 1090              		.loc 1 581 28 is_stmt 0 view .LVU390
 1091 0024 5B01     		lsls	r3, r3, #5
 1092              	.LVL151:
 581:Drivers/STM32G0xx_HAL_Driver/Src/stm32g0xx_hal_exti.c ****   }
 1093              		.loc 1 581 13 view .LVU391
 1094 0026 0349     		ldr	r1, .L56+4
 1095              	.LVL152:
 581:Drivers/STM32G0xx_HAL_Driver/Src/stm32g0xx_hal_exti.c ****   }
 1096              		.loc 1 581 13 view .LVU392
 1097 0028 8C46     		mov	ip, r1
 1098 002a 6344     		add	r3, r3, ip
 1099              	.LVL153:
 581:Drivers/STM32G0xx_HAL_Driver/Src/stm32g0xx_hal_exti.c ****   }
 1100              		.loc 1 581 13 view .LVU393
 1101 002c F6E7     		b	.L55
 1102              	.L57:
 1103 002e C046     		.align	2
 1104              	.L56:
 1105 0030 10180240 		.word	1073879056
 1106 0034 0C180240 		.word	1073879052
 1107              		.cfi_endproc
ARM GAS  C:\Users\tugru\AppData\Local\Temp\cc2Qf47L.s 			page 32


 1108              	.LFE316:
 1110              		.section	.text.HAL_EXTI_ClearPending,"ax",%progbits
 1111              		.align	1
 1112              		.global	HAL_EXTI_ClearPending
 1113              		.syntax unified
 1114              		.code	16
 1115              		.thumb_func
 1117              	HAL_EXTI_ClearPending:
 1118              	.LVL154:
 1119              	.LFB317:
 588:Drivers/STM32G0xx_HAL_Driver/Src/stm32g0xx_hal_exti.c **** 
 589:Drivers/STM32G0xx_HAL_Driver/Src/stm32g0xx_hal_exti.c **** 
 590:Drivers/STM32G0xx_HAL_Driver/Src/stm32g0xx_hal_exti.c **** /**
 591:Drivers/STM32G0xx_HAL_Driver/Src/stm32g0xx_hal_exti.c ****   * @brief  Clear interrupt pending bit of a dedicated line.
 592:Drivers/STM32G0xx_HAL_Driver/Src/stm32g0xx_hal_exti.c ****   * @param  hexti Exti handle.
 593:Drivers/STM32G0xx_HAL_Driver/Src/stm32g0xx_hal_exti.c ****   * @param  Edge Specify which pending edge as to be clear.
 594:Drivers/STM32G0xx_HAL_Driver/Src/stm32g0xx_hal_exti.c ****   *         This parameter can be one of the following values:
 595:Drivers/STM32G0xx_HAL_Driver/Src/stm32g0xx_hal_exti.c ****   *           @arg @ref EXTI_TRIGGER_RISING
 596:Drivers/STM32G0xx_HAL_Driver/Src/stm32g0xx_hal_exti.c ****   *           @arg @ref EXTI_TRIGGER_FALLING
 597:Drivers/STM32G0xx_HAL_Driver/Src/stm32g0xx_hal_exti.c ****   * @retval None.
 598:Drivers/STM32G0xx_HAL_Driver/Src/stm32g0xx_hal_exti.c ****   */
 599:Drivers/STM32G0xx_HAL_Driver/Src/stm32g0xx_hal_exti.c **** void HAL_EXTI_ClearPending(EXTI_HandleTypeDef *hexti, uint32_t Edge)
 600:Drivers/STM32G0xx_HAL_Driver/Src/stm32g0xx_hal_exti.c **** {
 1120              		.loc 1 600 1 is_stmt 1 view -0
 1121              		.cfi_startproc
 1122              		@ args = 0, pretend = 0, frame = 0
 1123              		@ frame_needed = 0, uses_anonymous_args = 0
 1124              		.loc 1 600 1 is_stmt 0 view .LVU395
 1125 0000 10B5     		push	{r4, lr}
 1126              	.LCFI6:
 1127              		.cfi_def_cfa_offset 8
 1128              		.cfi_offset 4, -8
 1129              		.cfi_offset 14, -4
 601:Drivers/STM32G0xx_HAL_Driver/Src/stm32g0xx_hal_exti.c ****   __IO uint32_t *regaddr;
 1130              		.loc 1 601 3 is_stmt 1 view .LVU396
 602:Drivers/STM32G0xx_HAL_Driver/Src/stm32g0xx_hal_exti.c ****   uint32_t maskline;
 1131              		.loc 1 602 3 view .LVU397
 603:Drivers/STM32G0xx_HAL_Driver/Src/stm32g0xx_hal_exti.c ****   uint32_t offset;
 1132              		.loc 1 603 3 view .LVU398
 604:Drivers/STM32G0xx_HAL_Driver/Src/stm32g0xx_hal_exti.c **** 
 605:Drivers/STM32G0xx_HAL_Driver/Src/stm32g0xx_hal_exti.c ****   /* Check parameters */
 606:Drivers/STM32G0xx_HAL_Driver/Src/stm32g0xx_hal_exti.c ****   assert_param(IS_EXTI_LINE(hexti->Line));
 1133              		.loc 1 606 3 view .LVU399
 607:Drivers/STM32G0xx_HAL_Driver/Src/stm32g0xx_hal_exti.c ****   assert_param(IS_EXTI_CONFIG_LINE(hexti->Line));
 1134              		.loc 1 607 3 view .LVU400
 608:Drivers/STM32G0xx_HAL_Driver/Src/stm32g0xx_hal_exti.c ****   assert_param(IS_EXTI_PENDING_EDGE(Edge));
 1135              		.loc 1 608 3 view .LVU401
 609:Drivers/STM32G0xx_HAL_Driver/Src/stm32g0xx_hal_exti.c **** 
 610:Drivers/STM32G0xx_HAL_Driver/Src/stm32g0xx_hal_exti.c ****   /* compute line register offset and line mask */
 611:Drivers/STM32G0xx_HAL_Driver/Src/stm32g0xx_hal_exti.c ****   offset = ((hexti->Line & EXTI_REG_MASK) >> EXTI_REG_SHIFT);
 1136              		.loc 1 611 3 view .LVU402
 1137              		.loc 1 611 19 is_stmt 0 view .LVU403
 1138 0002 0468     		ldr	r4, [r0]
 1139              		.loc 1 611 43 view .LVU404
 1140 0004 230C     		lsrs	r3, r4, #16
 1141              		.loc 1 611 10 view .LVU405
 1142 0006 0122     		movs	r2, #1
ARM GAS  C:\Users\tugru\AppData\Local\Temp\cc2Qf47L.s 			page 33


 1143 0008 1340     		ands	r3, r2
 1144              	.LVL155:
 612:Drivers/STM32G0xx_HAL_Driver/Src/stm32g0xx_hal_exti.c ****   maskline = (1uL << (hexti->Line & EXTI_PIN_MASK));
 1145              		.loc 1 612 3 is_stmt 1 view .LVU406
 1146              		.loc 1 612 35 is_stmt 0 view .LVU407
 1147 000a 1F20     		movs	r0, #31
 1148              	.LVL156:
 1149              		.loc 1 612 35 view .LVU408
 1150 000c 2040     		ands	r0, r4
 1151              		.loc 1 612 12 view .LVU409
 1152 000e 8240     		lsls	r2, r2, r0
 1153              	.LVL157:
 613:Drivers/STM32G0xx_HAL_Driver/Src/stm32g0xx_hal_exti.c **** 
 614:Drivers/STM32G0xx_HAL_Driver/Src/stm32g0xx_hal_exti.c ****   if (Edge != EXTI_TRIGGER_RISING)
 1154              		.loc 1 614 3 is_stmt 1 view .LVU410
 1155              		.loc 1 614 6 is_stmt 0 view .LVU411
 1156 0010 0129     		cmp	r1, #1
 1157 0012 05D0     		beq	.L59
 615:Drivers/STM32G0xx_HAL_Driver/Src/stm32g0xx_hal_exti.c ****   {
 616:Drivers/STM32G0xx_HAL_Driver/Src/stm32g0xx_hal_exti.c ****     /* Get falling edge pending register address */
 617:Drivers/STM32G0xx_HAL_Driver/Src/stm32g0xx_hal_exti.c ****     regaddr = (&EXTI->FPR1 + (EXTI_CONFIG_OFFSET * offset));
 1158              		.loc 1 617 5 is_stmt 1 view .LVU412
 1159              		.loc 1 617 28 is_stmt 0 view .LVU413
 1160 0014 5B01     		lsls	r3, r3, #5
 1161              	.LVL158:
 1162              		.loc 1 617 13 view .LVU414
 1163 0016 0549     		ldr	r1, .L61
 1164              	.LVL159:
 1165              		.loc 1 617 13 view .LVU415
 1166 0018 8C46     		mov	ip, r1
 1167 001a 6344     		add	r3, r3, ip
 1168              	.LVL160:
 1169              	.L60:
 618:Drivers/STM32G0xx_HAL_Driver/Src/stm32g0xx_hal_exti.c ****   }
 619:Drivers/STM32G0xx_HAL_Driver/Src/stm32g0xx_hal_exti.c ****   else
 620:Drivers/STM32G0xx_HAL_Driver/Src/stm32g0xx_hal_exti.c ****   {
 621:Drivers/STM32G0xx_HAL_Driver/Src/stm32g0xx_hal_exti.c ****     /* Get falling edge pending register address */
 622:Drivers/STM32G0xx_HAL_Driver/Src/stm32g0xx_hal_exti.c ****     regaddr = (&EXTI->RPR1 + (EXTI_CONFIG_OFFSET * offset));
 623:Drivers/STM32G0xx_HAL_Driver/Src/stm32g0xx_hal_exti.c ****   }
 624:Drivers/STM32G0xx_HAL_Driver/Src/stm32g0xx_hal_exti.c **** 
 625:Drivers/STM32G0xx_HAL_Driver/Src/stm32g0xx_hal_exti.c ****   /* Clear Pending bit */
 626:Drivers/STM32G0xx_HAL_Driver/Src/stm32g0xx_hal_exti.c ****   *regaddr =  maskline;
 1170              		.loc 1 626 3 is_stmt 1 view .LVU416
 1171              		.loc 1 626 12 is_stmt 0 view .LVU417
 1172 001c 1A60     		str	r2, [r3]
 627:Drivers/STM32G0xx_HAL_Driver/Src/stm32g0xx_hal_exti.c **** }
 1173              		.loc 1 627 1 view .LVU418
 1174              		@ sp needed
 1175              	.LVL161:
 1176              		.loc 1 627 1 view .LVU419
 1177 001e 10BD     		pop	{r4, pc}
 1178              	.LVL162:
 1179              	.L59:
 622:Drivers/STM32G0xx_HAL_Driver/Src/stm32g0xx_hal_exti.c ****   }
 1180              		.loc 1 622 5 is_stmt 1 view .LVU420
 622:Drivers/STM32G0xx_HAL_Driver/Src/stm32g0xx_hal_exti.c ****   }
 1181              		.loc 1 622 28 is_stmt 0 view .LVU421
ARM GAS  C:\Users\tugru\AppData\Local\Temp\cc2Qf47L.s 			page 34


 1182 0020 5B01     		lsls	r3, r3, #5
 1183              	.LVL163:
 622:Drivers/STM32G0xx_HAL_Driver/Src/stm32g0xx_hal_exti.c ****   }
 1184              		.loc 1 622 13 view .LVU422
 1185 0022 0349     		ldr	r1, .L61+4
 1186              	.LVL164:
 622:Drivers/STM32G0xx_HAL_Driver/Src/stm32g0xx_hal_exti.c ****   }
 1187              		.loc 1 622 13 view .LVU423
 1188 0024 8C46     		mov	ip, r1
 1189 0026 6344     		add	r3, r3, ip
 1190              	.LVL165:
 622:Drivers/STM32G0xx_HAL_Driver/Src/stm32g0xx_hal_exti.c ****   }
 1191              		.loc 1 622 13 view .LVU424
 1192 0028 F8E7     		b	.L60
 1193              	.L62:
 1194 002a C046     		.align	2
 1195              	.L61:
 1196 002c 10180240 		.word	1073879056
 1197 0030 0C180240 		.word	1073879052
 1198              		.cfi_endproc
 1199              	.LFE317:
 1201              		.section	.text.HAL_EXTI_GenerateSWI,"ax",%progbits
 1202              		.align	1
 1203              		.global	HAL_EXTI_GenerateSWI
 1204              		.syntax unified
 1205              		.code	16
 1206              		.thumb_func
 1208              	HAL_EXTI_GenerateSWI:
 1209              	.LVL166:
 1210              	.LFB318:
 628:Drivers/STM32G0xx_HAL_Driver/Src/stm32g0xx_hal_exti.c **** 
 629:Drivers/STM32G0xx_HAL_Driver/Src/stm32g0xx_hal_exti.c **** 
 630:Drivers/STM32G0xx_HAL_Driver/Src/stm32g0xx_hal_exti.c **** /**
 631:Drivers/STM32G0xx_HAL_Driver/Src/stm32g0xx_hal_exti.c ****   * @brief  Generate a software interrupt for a dedicated line.
 632:Drivers/STM32G0xx_HAL_Driver/Src/stm32g0xx_hal_exti.c ****   * @param  hexti Exti handle.
 633:Drivers/STM32G0xx_HAL_Driver/Src/stm32g0xx_hal_exti.c ****   * @retval None.
 634:Drivers/STM32G0xx_HAL_Driver/Src/stm32g0xx_hal_exti.c ****   */
 635:Drivers/STM32G0xx_HAL_Driver/Src/stm32g0xx_hal_exti.c **** void HAL_EXTI_GenerateSWI(EXTI_HandleTypeDef *hexti)
 636:Drivers/STM32G0xx_HAL_Driver/Src/stm32g0xx_hal_exti.c **** {
 1211              		.loc 1 636 1 is_stmt 1 view -0
 1212              		.cfi_startproc
 1213              		@ args = 0, pretend = 0, frame = 0
 1214              		@ frame_needed = 0, uses_anonymous_args = 0
 1215              		@ link register save eliminated.
 637:Drivers/STM32G0xx_HAL_Driver/Src/stm32g0xx_hal_exti.c ****   __IO uint32_t *regaddr;
 1216              		.loc 1 637 3 view .LVU426
 638:Drivers/STM32G0xx_HAL_Driver/Src/stm32g0xx_hal_exti.c ****   uint32_t maskline;
 1217              		.loc 1 638 3 view .LVU427
 639:Drivers/STM32G0xx_HAL_Driver/Src/stm32g0xx_hal_exti.c ****   uint32_t offset;
 1218              		.loc 1 639 3 view .LVU428
 640:Drivers/STM32G0xx_HAL_Driver/Src/stm32g0xx_hal_exti.c **** 
 641:Drivers/STM32G0xx_HAL_Driver/Src/stm32g0xx_hal_exti.c ****   /* Check parameterd */
 642:Drivers/STM32G0xx_HAL_Driver/Src/stm32g0xx_hal_exti.c ****   assert_param(IS_EXTI_LINE(hexti->Line));
 1219              		.loc 1 642 3 view .LVU429
 643:Drivers/STM32G0xx_HAL_Driver/Src/stm32g0xx_hal_exti.c ****   assert_param(IS_EXTI_CONFIG_LINE(hexti->Line));
 1220              		.loc 1 643 3 view .LVU430
 644:Drivers/STM32G0xx_HAL_Driver/Src/stm32g0xx_hal_exti.c **** 
ARM GAS  C:\Users\tugru\AppData\Local\Temp\cc2Qf47L.s 			page 35


 645:Drivers/STM32G0xx_HAL_Driver/Src/stm32g0xx_hal_exti.c ****   /* compute line register offset and line mask */
 646:Drivers/STM32G0xx_HAL_Driver/Src/stm32g0xx_hal_exti.c ****   offset = ((hexti->Line & EXTI_REG_MASK) >> EXTI_REG_SHIFT);
 1221              		.loc 1 646 3 view .LVU431
 1222              		.loc 1 646 19 is_stmt 0 view .LVU432
 1223 0000 0068     		ldr	r0, [r0]
 1224              	.LVL167:
 1225              		.loc 1 646 43 view .LVU433
 1226 0002 030C     		lsrs	r3, r0, #16
 1227              		.loc 1 646 10 view .LVU434
 1228 0004 0122     		movs	r2, #1
 1229 0006 1340     		ands	r3, r2
 1230              	.LVL168:
 647:Drivers/STM32G0xx_HAL_Driver/Src/stm32g0xx_hal_exti.c ****   maskline = (1uL << (hexti->Line & EXTI_PIN_MASK));
 1231              		.loc 1 647 3 is_stmt 1 view .LVU435
 1232              		.loc 1 647 35 is_stmt 0 view .LVU436
 1233 0008 1F21     		movs	r1, #31
 1234 000a 0140     		ands	r1, r0
 1235              		.loc 1 647 12 view .LVU437
 1236 000c 8A40     		lsls	r2, r2, r1
 1237              	.LVL169:
 648:Drivers/STM32G0xx_HAL_Driver/Src/stm32g0xx_hal_exti.c **** 
 649:Drivers/STM32G0xx_HAL_Driver/Src/stm32g0xx_hal_exti.c ****   regaddr = (&EXTI->SWIER1 + (EXTI_CONFIG_OFFSET * offset));
 1238              		.loc 1 649 3 is_stmt 1 view .LVU438
 1239              		.loc 1 649 28 is_stmt 0 view .LVU439
 1240 000e 5B01     		lsls	r3, r3, #5
 1241              	.LVL170:
 1242              		.loc 1 649 11 view .LVU440
 1243 0010 0249     		ldr	r1, .L64
 1244 0012 8C46     		mov	ip, r1
 1245 0014 6344     		add	r3, r3, ip
 1246              	.LVL171:
 650:Drivers/STM32G0xx_HAL_Driver/Src/stm32g0xx_hal_exti.c ****   *regaddr = maskline;
 1247              		.loc 1 650 3 is_stmt 1 view .LVU441
 1248              		.loc 1 650 12 is_stmt 0 view .LVU442
 1249 0016 1A60     		str	r2, [r3]
 651:Drivers/STM32G0xx_HAL_Driver/Src/stm32g0xx_hal_exti.c **** }
 1250              		.loc 1 651 1 view .LVU443
 1251              		@ sp needed
 1252 0018 7047     		bx	lr
 1253              	.L65:
 1254 001a C046     		.align	2
 1255              	.L64:
 1256 001c 08180240 		.word	1073879048
 1257              		.cfi_endproc
 1258              	.LFE318:
 1260              		.text
 1261              	.Letext0:
 1262              		.file 2 "c:\\dev\\tools\\gcc-arm-none-eabi-10.3-2021.10\\arm-none-eabi\\include\\machine\\_default
 1263              		.file 3 "c:\\dev\\tools\\gcc-arm-none-eabi-10.3-2021.10\\arm-none-eabi\\include\\sys\\_stdint.h"
 1264              		.file 4 "Drivers/CMSIS/Device/ST/STM32G0xx/Include/stm32g070xx.h"
 1265              		.file 5 "Drivers/STM32G0xx_HAL_Driver/Inc/stm32g0xx_hal_def.h"
 1266              		.file 6 "Drivers/STM32G0xx_HAL_Driver/Inc/stm32g0xx_hal_exti.h"
 1267              		.file 7 "Drivers/STM32G0xx_HAL_Driver/Inc/stm32g0xx_ll_dma.h"
ARM GAS  C:\Users\tugru\AppData\Local\Temp\cc2Qf47L.s 			page 36

