ARM GAS  C:\Users\tugru\AppData\Local\Temp\ccZeWSML.s 			page 1


   1              		.cpu cortex-m0plus
   2              		.arch armv6s-m
   3              		.fpu softvfp
   4              		.eabi_attribute 20, 1
   5              		.eabi_attribute 21, 1
   6              		.eabi_attribute 23, 3
   7              		.eabi_attribute 24, 1
   8              		.eabi_attribute 25, 1
   9              		.eabi_attribute 26, 1
  10              		.eabi_attribute 30, 1
  11              		.eabi_attribute 34, 0
  12              		.eabi_attribute 18, 4
  13              		.file	"stm32g0xx_hal_rcc.c"
  14              		.text
  15              	.Ltext0:
  16              		.cfi_sections	.debug_frame
  17              		.section	.text.HAL_RCC_DeInit,"ax",%progbits
  18              		.align	1
  19              		.global	HAL_RCC_DeInit
  20              		.syntax unified
  21              		.code	16
  22              		.thumb_func
  24              	HAL_RCC_DeInit:
  25              	.LFB310:
  26              		.file 1 "Drivers/STM32G0xx_HAL_Driver/Src/stm32g0xx_hal_rcc.c"
   1:Drivers/STM32G0xx_HAL_Driver/Src/stm32g0xx_hal_rcc.c **** /**
   2:Drivers/STM32G0xx_HAL_Driver/Src/stm32g0xx_hal_rcc.c ****   ******************************************************************************
   3:Drivers/STM32G0xx_HAL_Driver/Src/stm32g0xx_hal_rcc.c ****   * @file    stm32g0xx_hal_rcc.c
   4:Drivers/STM32G0xx_HAL_Driver/Src/stm32g0xx_hal_rcc.c ****   * @author  MCD Application Team
   5:Drivers/STM32G0xx_HAL_Driver/Src/stm32g0xx_hal_rcc.c ****   * @brief   RCC HAL module driver.
   6:Drivers/STM32G0xx_HAL_Driver/Src/stm32g0xx_hal_rcc.c ****   *          This file provides firmware functions to manage the following
   7:Drivers/STM32G0xx_HAL_Driver/Src/stm32g0xx_hal_rcc.c ****   *          functionalities of the Reset and Clock Control (RCC) peripheral:
   8:Drivers/STM32G0xx_HAL_Driver/Src/stm32g0xx_hal_rcc.c ****   *           + Initialization and de-initialization functions
   9:Drivers/STM32G0xx_HAL_Driver/Src/stm32g0xx_hal_rcc.c ****   *           + Peripheral Control functions
  10:Drivers/STM32G0xx_HAL_Driver/Src/stm32g0xx_hal_rcc.c ****   *
  11:Drivers/STM32G0xx_HAL_Driver/Src/stm32g0xx_hal_rcc.c ****   @verbatim
  12:Drivers/STM32G0xx_HAL_Driver/Src/stm32g0xx_hal_rcc.c ****   ==============================================================================
  13:Drivers/STM32G0xx_HAL_Driver/Src/stm32g0xx_hal_rcc.c ****                       ##### RCC specific features #####
  14:Drivers/STM32G0xx_HAL_Driver/Src/stm32g0xx_hal_rcc.c ****   ==============================================================================
  15:Drivers/STM32G0xx_HAL_Driver/Src/stm32g0xx_hal_rcc.c ****     [..]
  16:Drivers/STM32G0xx_HAL_Driver/Src/stm32g0xx_hal_rcc.c ****       After reset the device is running from High Speed Internal oscillator
  17:Drivers/STM32G0xx_HAL_Driver/Src/stm32g0xx_hal_rcc.c ****       (from 8 MHz to reach 16MHz) with Flash 0 wait state. Flash prefetch buffer,
  18:Drivers/STM32G0xx_HAL_Driver/Src/stm32g0xx_hal_rcc.c ****       D-Cache and I-Cache are disabled, and all peripherals are off except internal
  19:Drivers/STM32G0xx_HAL_Driver/Src/stm32g0xx_hal_rcc.c ****       SRAM, Flash and JTAG.
  20:Drivers/STM32G0xx_HAL_Driver/Src/stm32g0xx_hal_rcc.c **** 
  21:Drivers/STM32G0xx_HAL_Driver/Src/stm32g0xx_hal_rcc.c ****       (+) There is no prescaler on High speed (AHB) and Low speed (APB) buses:
  22:Drivers/STM32G0xx_HAL_Driver/Src/stm32g0xx_hal_rcc.c ****           all peripherals mapped on these buses are running at HSI speed.
  23:Drivers/STM32G0xx_HAL_Driver/Src/stm32g0xx_hal_rcc.c ****       (+) The clock for all peripherals is switched off, except the SRAM and FLASH.
  24:Drivers/STM32G0xx_HAL_Driver/Src/stm32g0xx_hal_rcc.c ****       (+) All GPIOs are in analog mode, except the JTAG pins which
  25:Drivers/STM32G0xx_HAL_Driver/Src/stm32g0xx_hal_rcc.c ****           are assigned to be used for debug purpose.
  26:Drivers/STM32G0xx_HAL_Driver/Src/stm32g0xx_hal_rcc.c **** 
  27:Drivers/STM32G0xx_HAL_Driver/Src/stm32g0xx_hal_rcc.c ****     [..]
  28:Drivers/STM32G0xx_HAL_Driver/Src/stm32g0xx_hal_rcc.c ****       Once the device started from reset, the user application has to:
  29:Drivers/STM32G0xx_HAL_Driver/Src/stm32g0xx_hal_rcc.c ****       (+) Configure the clock source to be used to drive the System clock
  30:Drivers/STM32G0xx_HAL_Driver/Src/stm32g0xx_hal_rcc.c ****           (if the application needs higher frequency/performance)
  31:Drivers/STM32G0xx_HAL_Driver/Src/stm32g0xx_hal_rcc.c ****       (+) Configure the System clock frequency and Flash settings
  32:Drivers/STM32G0xx_HAL_Driver/Src/stm32g0xx_hal_rcc.c ****       (+) Configure the AHB and APB buses prescalers
ARM GAS  C:\Users\tugru\AppData\Local\Temp\ccZeWSML.s 			page 2


  33:Drivers/STM32G0xx_HAL_Driver/Src/stm32g0xx_hal_rcc.c ****       (+) Enable the clock for the peripheral(s) to be used
  34:Drivers/STM32G0xx_HAL_Driver/Src/stm32g0xx_hal_rcc.c ****       (+) Configure the clock source(s) for peripherals which clocks are not
  35:Drivers/STM32G0xx_HAL_Driver/Src/stm32g0xx_hal_rcc.c ****           derived from the System clock (RTC, ADC, RNG, HSTIM)
  36:Drivers/STM32G0xx_HAL_Driver/Src/stm32g0xx_hal_rcc.c **** 
  37:Drivers/STM32G0xx_HAL_Driver/Src/stm32g0xx_hal_rcc.c ****   @endverbatim
  38:Drivers/STM32G0xx_HAL_Driver/Src/stm32g0xx_hal_rcc.c ****   ******************************************************************************
  39:Drivers/STM32G0xx_HAL_Driver/Src/stm32g0xx_hal_rcc.c ****   * @attention
  40:Drivers/STM32G0xx_HAL_Driver/Src/stm32g0xx_hal_rcc.c ****   *
  41:Drivers/STM32G0xx_HAL_Driver/Src/stm32g0xx_hal_rcc.c ****   * Copyright (c) 2018 STMicroelectronics.
  42:Drivers/STM32G0xx_HAL_Driver/Src/stm32g0xx_hal_rcc.c ****   * All rights reserved.
  43:Drivers/STM32G0xx_HAL_Driver/Src/stm32g0xx_hal_rcc.c ****   *
  44:Drivers/STM32G0xx_HAL_Driver/Src/stm32g0xx_hal_rcc.c ****   * This software is licensed under terms that can be found in the LICENSE file in
  45:Drivers/STM32G0xx_HAL_Driver/Src/stm32g0xx_hal_rcc.c ****   * the root directory of this software component.
  46:Drivers/STM32G0xx_HAL_Driver/Src/stm32g0xx_hal_rcc.c ****   * If no LICENSE file comes with this software, it is provided AS-IS.
  47:Drivers/STM32G0xx_HAL_Driver/Src/stm32g0xx_hal_rcc.c ****   ******************************************************************************
  48:Drivers/STM32G0xx_HAL_Driver/Src/stm32g0xx_hal_rcc.c ****   */
  49:Drivers/STM32G0xx_HAL_Driver/Src/stm32g0xx_hal_rcc.c **** 
  50:Drivers/STM32G0xx_HAL_Driver/Src/stm32g0xx_hal_rcc.c **** /* Includes ------------------------------------------------------------------*/
  51:Drivers/STM32G0xx_HAL_Driver/Src/stm32g0xx_hal_rcc.c **** #include "stm32g0xx_hal.h"
  52:Drivers/STM32G0xx_HAL_Driver/Src/stm32g0xx_hal_rcc.c **** 
  53:Drivers/STM32G0xx_HAL_Driver/Src/stm32g0xx_hal_rcc.c **** /** @addtogroup STM32G0xx_HAL_Driver
  54:Drivers/STM32G0xx_HAL_Driver/Src/stm32g0xx_hal_rcc.c ****   * @{
  55:Drivers/STM32G0xx_HAL_Driver/Src/stm32g0xx_hal_rcc.c ****   */
  56:Drivers/STM32G0xx_HAL_Driver/Src/stm32g0xx_hal_rcc.c **** 
  57:Drivers/STM32G0xx_HAL_Driver/Src/stm32g0xx_hal_rcc.c **** /** @defgroup RCC RCC
  58:Drivers/STM32G0xx_HAL_Driver/Src/stm32g0xx_hal_rcc.c ****   * @brief RCC HAL module driver
  59:Drivers/STM32G0xx_HAL_Driver/Src/stm32g0xx_hal_rcc.c ****   * @{
  60:Drivers/STM32G0xx_HAL_Driver/Src/stm32g0xx_hal_rcc.c ****   */
  61:Drivers/STM32G0xx_HAL_Driver/Src/stm32g0xx_hal_rcc.c **** 
  62:Drivers/STM32G0xx_HAL_Driver/Src/stm32g0xx_hal_rcc.c **** #ifdef HAL_RCC_MODULE_ENABLED
  63:Drivers/STM32G0xx_HAL_Driver/Src/stm32g0xx_hal_rcc.c **** 
  64:Drivers/STM32G0xx_HAL_Driver/Src/stm32g0xx_hal_rcc.c **** /* Private typedef -----------------------------------------------------------*/
  65:Drivers/STM32G0xx_HAL_Driver/Src/stm32g0xx_hal_rcc.c **** /* Private define ------------------------------------------------------------*/
  66:Drivers/STM32G0xx_HAL_Driver/Src/stm32g0xx_hal_rcc.c **** /** @defgroup RCC_Private_Constants RCC Private Constants
  67:Drivers/STM32G0xx_HAL_Driver/Src/stm32g0xx_hal_rcc.c ****   * @{
  68:Drivers/STM32G0xx_HAL_Driver/Src/stm32g0xx_hal_rcc.c ****   */
  69:Drivers/STM32G0xx_HAL_Driver/Src/stm32g0xx_hal_rcc.c **** #define HSE_TIMEOUT_VALUE          HSE_STARTUP_TIMEOUT
  70:Drivers/STM32G0xx_HAL_Driver/Src/stm32g0xx_hal_rcc.c **** #define HSI_TIMEOUT_VALUE          (2U)    /* 2 ms (minimum Tick + 1) */
  71:Drivers/STM32G0xx_HAL_Driver/Src/stm32g0xx_hal_rcc.c **** #define LSI_TIMEOUT_VALUE          (2U)    /* 2 ms (minimum Tick + 1) */
  72:Drivers/STM32G0xx_HAL_Driver/Src/stm32g0xx_hal_rcc.c **** #define PLL_TIMEOUT_VALUE          (2U)    /* 2 ms (minimum Tick + 1) */
  73:Drivers/STM32G0xx_HAL_Driver/Src/stm32g0xx_hal_rcc.c **** 
  74:Drivers/STM32G0xx_HAL_Driver/Src/stm32g0xx_hal_rcc.c **** #if defined(RCC_HSI48_SUPPORT)
  75:Drivers/STM32G0xx_HAL_Driver/Src/stm32g0xx_hal_rcc.c **** #define HSI48_TIMEOUT_VALUE        (2U)    /* 2 ms (minimum Tick + 1) */
  76:Drivers/STM32G0xx_HAL_Driver/Src/stm32g0xx_hal_rcc.c **** #endif /* RCC_HSI48_SUPPORT */
  77:Drivers/STM32G0xx_HAL_Driver/Src/stm32g0xx_hal_rcc.c **** #define CLOCKSWITCH_TIMEOUT_VALUE  (5000U) /* 5 s    */
  78:Drivers/STM32G0xx_HAL_Driver/Src/stm32g0xx_hal_rcc.c **** 
  79:Drivers/STM32G0xx_HAL_Driver/Src/stm32g0xx_hal_rcc.c **** #define PLLSOURCE_NONE             (0U)
  80:Drivers/STM32G0xx_HAL_Driver/Src/stm32g0xx_hal_rcc.c **** /**
  81:Drivers/STM32G0xx_HAL_Driver/Src/stm32g0xx_hal_rcc.c ****   * @}
  82:Drivers/STM32G0xx_HAL_Driver/Src/stm32g0xx_hal_rcc.c ****   */
  83:Drivers/STM32G0xx_HAL_Driver/Src/stm32g0xx_hal_rcc.c **** 
  84:Drivers/STM32G0xx_HAL_Driver/Src/stm32g0xx_hal_rcc.c **** /* Private macro -------------------------------------------------------------*/
  85:Drivers/STM32G0xx_HAL_Driver/Src/stm32g0xx_hal_rcc.c **** /** @defgroup RCC_Private_Macros RCC Private Macros
  86:Drivers/STM32G0xx_HAL_Driver/Src/stm32g0xx_hal_rcc.c ****   * @{
  87:Drivers/STM32G0xx_HAL_Driver/Src/stm32g0xx_hal_rcc.c ****   */
  88:Drivers/STM32G0xx_HAL_Driver/Src/stm32g0xx_hal_rcc.c **** 
  89:Drivers/STM32G0xx_HAL_Driver/Src/stm32g0xx_hal_rcc.c **** #define RCC_GET_MCO_GPIO_PIN(__RCC_MCOx__)   ((__RCC_MCOx__) & GPIO_PIN_MASK)
ARM GAS  C:\Users\tugru\AppData\Local\Temp\ccZeWSML.s 			page 3


  90:Drivers/STM32G0xx_HAL_Driver/Src/stm32g0xx_hal_rcc.c **** 
  91:Drivers/STM32G0xx_HAL_Driver/Src/stm32g0xx_hal_rcc.c **** #define RCC_GET_MCO_GPIO_AF(__RCC_MCOx__)    (((__RCC_MCOx__) & RCC_MCO_GPIOAF_MASK) >> RCC_MCO_GPI
  92:Drivers/STM32G0xx_HAL_Driver/Src/stm32g0xx_hal_rcc.c **** 
  93:Drivers/STM32G0xx_HAL_Driver/Src/stm32g0xx_hal_rcc.c **** #define RCC_GET_MCO_GPIO_INDEX(__RCC_MCOx__) (((__RCC_MCOx__) & RCC_MCO_GPIOPORT_MASK) >> RCC_MCO_G
  94:Drivers/STM32G0xx_HAL_Driver/Src/stm32g0xx_hal_rcc.c **** 
  95:Drivers/STM32G0xx_HAL_Driver/Src/stm32g0xx_hal_rcc.c **** #define RCC_GET_MCO_GPIO_PORT(__RCC_MCOx__)  (IOPORT_BASE + ((0x00000400UL) * RCC_GET_MCO_GPIO_INDE
  96:Drivers/STM32G0xx_HAL_Driver/Src/stm32g0xx_hal_rcc.c **** 
  97:Drivers/STM32G0xx_HAL_Driver/Src/stm32g0xx_hal_rcc.c **** #define RCC_PLL_OSCSOURCE_CONFIG(__HAL_RCC_PLLSOURCE__) \
  98:Drivers/STM32G0xx_HAL_Driver/Src/stm32g0xx_hal_rcc.c ****   (MODIFY_REG(RCC->PLLCFGR, RCC_PLLCFGR_PLLSRC, (uint32_t)(__HAL_RCC_PLLSOURCE__)))
  99:Drivers/STM32G0xx_HAL_Driver/Src/stm32g0xx_hal_rcc.c **** /**
 100:Drivers/STM32G0xx_HAL_Driver/Src/stm32g0xx_hal_rcc.c ****   * @}
 101:Drivers/STM32G0xx_HAL_Driver/Src/stm32g0xx_hal_rcc.c ****   */
 102:Drivers/STM32G0xx_HAL_Driver/Src/stm32g0xx_hal_rcc.c **** 
 103:Drivers/STM32G0xx_HAL_Driver/Src/stm32g0xx_hal_rcc.c **** /* Private variables ---------------------------------------------------------*/
 104:Drivers/STM32G0xx_HAL_Driver/Src/stm32g0xx_hal_rcc.c **** /** @defgroup RCC_Private_Variables RCC Private Variables
 105:Drivers/STM32G0xx_HAL_Driver/Src/stm32g0xx_hal_rcc.c ****   * @{
 106:Drivers/STM32G0xx_HAL_Driver/Src/stm32g0xx_hal_rcc.c ****   */
 107:Drivers/STM32G0xx_HAL_Driver/Src/stm32g0xx_hal_rcc.c **** 
 108:Drivers/STM32G0xx_HAL_Driver/Src/stm32g0xx_hal_rcc.c **** /**
 109:Drivers/STM32G0xx_HAL_Driver/Src/stm32g0xx_hal_rcc.c ****   * @}
 110:Drivers/STM32G0xx_HAL_Driver/Src/stm32g0xx_hal_rcc.c ****   */
 111:Drivers/STM32G0xx_HAL_Driver/Src/stm32g0xx_hal_rcc.c **** 
 112:Drivers/STM32G0xx_HAL_Driver/Src/stm32g0xx_hal_rcc.c **** /* Private function prototypes -----------------------------------------------*/
 113:Drivers/STM32G0xx_HAL_Driver/Src/stm32g0xx_hal_rcc.c **** /* Exported functions --------------------------------------------------------*/
 114:Drivers/STM32G0xx_HAL_Driver/Src/stm32g0xx_hal_rcc.c **** 
 115:Drivers/STM32G0xx_HAL_Driver/Src/stm32g0xx_hal_rcc.c **** /** @defgroup RCC_Exported_Functions RCC Exported Functions
 116:Drivers/STM32G0xx_HAL_Driver/Src/stm32g0xx_hal_rcc.c ****   * @{
 117:Drivers/STM32G0xx_HAL_Driver/Src/stm32g0xx_hal_rcc.c ****   */
 118:Drivers/STM32G0xx_HAL_Driver/Src/stm32g0xx_hal_rcc.c **** 
 119:Drivers/STM32G0xx_HAL_Driver/Src/stm32g0xx_hal_rcc.c **** /** @defgroup RCC_Exported_Functions_Group1 Initialization and de-initialization functions
 120:Drivers/STM32G0xx_HAL_Driver/Src/stm32g0xx_hal_rcc.c ****   *  @brief    Initialization and Configuration functions
 121:Drivers/STM32G0xx_HAL_Driver/Src/stm32g0xx_hal_rcc.c ****   *
 122:Drivers/STM32G0xx_HAL_Driver/Src/stm32g0xx_hal_rcc.c ****   @verbatim
 123:Drivers/STM32G0xx_HAL_Driver/Src/stm32g0xx_hal_rcc.c ****  ===============================================================================
 124:Drivers/STM32G0xx_HAL_Driver/Src/stm32g0xx_hal_rcc.c ****            ##### Initialization and de-initialization functions #####
 125:Drivers/STM32G0xx_HAL_Driver/Src/stm32g0xx_hal_rcc.c ****  ===============================================================================
 126:Drivers/STM32G0xx_HAL_Driver/Src/stm32g0xx_hal_rcc.c ****     [..]
 127:Drivers/STM32G0xx_HAL_Driver/Src/stm32g0xx_hal_rcc.c ****       This section provides functions allowing to configure the internal and external oscillators
 128:Drivers/STM32G0xx_HAL_Driver/Src/stm32g0xx_hal_rcc.c ****       (HSE, HSI, LSE, LSI, PLL, CSS and MCO) and the System buses clocks (SYSCLK, AHB, APB)
 129:Drivers/STM32G0xx_HAL_Driver/Src/stm32g0xx_hal_rcc.c **** 
 130:Drivers/STM32G0xx_HAL_Driver/Src/stm32g0xx_hal_rcc.c ****     [..] Internal/external clock and PLL configuration
 131:Drivers/STM32G0xx_HAL_Driver/Src/stm32g0xx_hal_rcc.c ****          (+) HSI (high-speed internal): 16 MHz factory-trimmed RC used directly or through
 132:Drivers/STM32G0xx_HAL_Driver/Src/stm32g0xx_hal_rcc.c ****              the PLL as System clock source.
 133:Drivers/STM32G0xx_HAL_Driver/Src/stm32g0xx_hal_rcc.c **** 
 134:Drivers/STM32G0xx_HAL_Driver/Src/stm32g0xx_hal_rcc.c ****          (+) LSI (low-speed internal): 32 KHz low consumption RC used as IWDG and/or RTC
 135:Drivers/STM32G0xx_HAL_Driver/Src/stm32g0xx_hal_rcc.c ****              clock source.
 136:Drivers/STM32G0xx_HAL_Driver/Src/stm32g0xx_hal_rcc.c **** 
 137:Drivers/STM32G0xx_HAL_Driver/Src/stm32g0xx_hal_rcc.c ****          (+) HSE (high-speed external): 4 to 48 MHz crystal oscillator used directly or
 138:Drivers/STM32G0xx_HAL_Driver/Src/stm32g0xx_hal_rcc.c ****              through the PLL as System clock source. Can be used also optionally as RTC clock sourc
 139:Drivers/STM32G0xx_HAL_Driver/Src/stm32g0xx_hal_rcc.c **** 
 140:Drivers/STM32G0xx_HAL_Driver/Src/stm32g0xx_hal_rcc.c ****          (+) LSE (low-speed external): 32.768 KHz oscillator used optionally as RTC clock source.
 141:Drivers/STM32G0xx_HAL_Driver/Src/stm32g0xx_hal_rcc.c **** 
 142:Drivers/STM32G0xx_HAL_Driver/Src/stm32g0xx_hal_rcc.c ****          (+) PLL (clocked by HSI, HSE) providing up to three independent output clocks:
 143:Drivers/STM32G0xx_HAL_Driver/Src/stm32g0xx_hal_rcc.c ****            (++) The first output (R) is used to generate the high speed system clock (up to 64MHz).
 144:Drivers/STM32G0xx_HAL_Driver/Src/stm32g0xx_hal_rcc.c ****            (++) The second output(Q) is used to generate the clock for the random analog generator 
 145:Drivers/STM32G0xx_HAL_Driver/Src/stm32g0xx_hal_rcc.c ****            (++) The Third output (P) is used to generate the clock for the Analog to Digital Conver
 146:Drivers/STM32G0xx_HAL_Driver/Src/stm32g0xx_hal_rcc.c **** 
ARM GAS  C:\Users\tugru\AppData\Local\Temp\ccZeWSML.s 			page 4


 147:Drivers/STM32G0xx_HAL_Driver/Src/stm32g0xx_hal_rcc.c ****          (+) CSS (Clock security system): once enabled, if a HSE or LSE clock failure occurs
 148:Drivers/STM32G0xx_HAL_Driver/Src/stm32g0xx_hal_rcc.c ****             (HSE used directly or through PLL as System clock source), the System clock
 149:Drivers/STM32G0xx_HAL_Driver/Src/stm32g0xx_hal_rcc.c ****              is automatically switched respectively to HSI or LSI and an interrupt is generated
 150:Drivers/STM32G0xx_HAL_Driver/Src/stm32g0xx_hal_rcc.c ****              if enabled. The interrupt is linked to the Cortex-M0+ NMI (Non-Maskable Interrupt)
 151:Drivers/STM32G0xx_HAL_Driver/Src/stm32g0xx_hal_rcc.c ****              exception vector.
 152:Drivers/STM32G0xx_HAL_Driver/Src/stm32g0xx_hal_rcc.c **** 
 153:Drivers/STM32G0xx_HAL_Driver/Src/stm32g0xx_hal_rcc.c ****          (+) MCOx (microcontroller clock output):
 154:Drivers/STM32G0xx_HAL_Driver/Src/stm32g0xx_hal_rcc.c ****              (++) MCO1 used to output LSI, HSI48(*), HSI, LSE, HSE or main PLL clock (through a con
 155:Drivers/STM32G0xx_HAL_Driver/Src/stm32g0xx_hal_rcc.c ****              (++) MCO2(*) used to output LSI, HSI48(*), HSI, LSE, HSE, main PLLR clock, PLLQ clock,
 156:Drivers/STM32G0xx_HAL_Driver/Src/stm32g0xx_hal_rcc.c ****                  (*) available on certain devices only
 157:Drivers/STM32G0xx_HAL_Driver/Src/stm32g0xx_hal_rcc.c **** 
 158:Drivers/STM32G0xx_HAL_Driver/Src/stm32g0xx_hal_rcc.c ****     [..] System, AHB and APB buses clocks configuration
 159:Drivers/STM32G0xx_HAL_Driver/Src/stm32g0xx_hal_rcc.c ****          (+) Several clock sources can be used to drive the System clock (SYSCLK): HSI,
 160:Drivers/STM32G0xx_HAL_Driver/Src/stm32g0xx_hal_rcc.c ****              HSE, LSI, LSE and main PLL.
 161:Drivers/STM32G0xx_HAL_Driver/Src/stm32g0xx_hal_rcc.c ****              The AHB clock (HCLK) is derived from System clock through configurable
 162:Drivers/STM32G0xx_HAL_Driver/Src/stm32g0xx_hal_rcc.c ****              prescaler and used to clock the CPU, memory and peripherals mapped
 163:Drivers/STM32G0xx_HAL_Driver/Src/stm32g0xx_hal_rcc.c ****              on AHB bus (DMA, GPIO...).and APB (PCLK1) clock is derived
 164:Drivers/STM32G0xx_HAL_Driver/Src/stm32g0xx_hal_rcc.c ****              from AHB clock through configurable prescalers and used to clock
 165:Drivers/STM32G0xx_HAL_Driver/Src/stm32g0xx_hal_rcc.c ****              the peripherals mapped on these buses. You can use
 166:Drivers/STM32G0xx_HAL_Driver/Src/stm32g0xx_hal_rcc.c ****              "HAL_RCC_GetSysClockFreq()" function to retrieve the frequencies of these clocks.
 167:Drivers/STM32G0xx_HAL_Driver/Src/stm32g0xx_hal_rcc.c **** 
 168:Drivers/STM32G0xx_HAL_Driver/Src/stm32g0xx_hal_rcc.c ****          -@- All the peripheral clocks are derived from the System clock (SYSCLK) except:
 169:Drivers/STM32G0xx_HAL_Driver/Src/stm32g0xx_hal_rcc.c **** 
 170:Drivers/STM32G0xx_HAL_Driver/Src/stm32g0xx_hal_rcc.c ****             (+@) RTC: the RTC clock can be derived either from the LSI, LSE or HSE clock
 171:Drivers/STM32G0xx_HAL_Driver/Src/stm32g0xx_hal_rcc.c ****                 divided by 2 to 31.
 172:Drivers/STM32G0xx_HAL_Driver/Src/stm32g0xx_hal_rcc.c ****                 You have to use __HAL_RCC_RTC_ENABLE() and HAL_RCCEx_PeriphCLKConfig() function
 173:Drivers/STM32G0xx_HAL_Driver/Src/stm32g0xx_hal_rcc.c ****                  to configure this clock.
 174:Drivers/STM32G0xx_HAL_Driver/Src/stm32g0xx_hal_rcc.c **** 
 175:Drivers/STM32G0xx_HAL_Driver/Src/stm32g0xx_hal_rcc.c ****             (+@) RNG(*) requires a frequency equal or lower than 48 MHz.
 176:Drivers/STM32G0xx_HAL_Driver/Src/stm32g0xx_hal_rcc.c ****                  This clock is derived from the main PLL or HSI or System clock.
 177:Drivers/STM32G0xx_HAL_Driver/Src/stm32g0xx_hal_rcc.c ****                  (*) available on certain devices only
 178:Drivers/STM32G0xx_HAL_Driver/Src/stm32g0xx_hal_rcc.c **** 
 179:Drivers/STM32G0xx_HAL_Driver/Src/stm32g0xx_hal_rcc.c ****             (+@) IWDG clock which is always the LSI clock.
 180:Drivers/STM32G0xx_HAL_Driver/Src/stm32g0xx_hal_rcc.c **** 
 181:Drivers/STM32G0xx_HAL_Driver/Src/stm32g0xx_hal_rcc.c **** 
 182:Drivers/STM32G0xx_HAL_Driver/Src/stm32g0xx_hal_rcc.c ****          (+) The maximum frequency of the SYSCLK, HCLK, PCLK is 64 MHz.
 183:Drivers/STM32G0xx_HAL_Driver/Src/stm32g0xx_hal_rcc.c ****              Depending on the device voltage range, the maximum frequency should be
 184:Drivers/STM32G0xx_HAL_Driver/Src/stm32g0xx_hal_rcc.c ****              adapted accordingly.
 185:Drivers/STM32G0xx_HAL_Driver/Src/stm32g0xx_hal_rcc.c **** 
 186:Drivers/STM32G0xx_HAL_Driver/Src/stm32g0xx_hal_rcc.c ****   @endverbatim
 187:Drivers/STM32G0xx_HAL_Driver/Src/stm32g0xx_hal_rcc.c **** 
 188:Drivers/STM32G0xx_HAL_Driver/Src/stm32g0xx_hal_rcc.c ****      (++)  Table 1. HCLK clock frequency.
 189:Drivers/STM32G0xx_HAL_Driver/Src/stm32g0xx_hal_rcc.c ****      (++)  +-------------------------------------------------------+
 190:Drivers/STM32G0xx_HAL_Driver/Src/stm32g0xx_hal_rcc.c ****      (++)  | Latency         |    HCLK clock frequency (MHz)       |
 191:Drivers/STM32G0xx_HAL_Driver/Src/stm32g0xx_hal_rcc.c ****      (++)  |                 |-------------------------------------|
 192:Drivers/STM32G0xx_HAL_Driver/Src/stm32g0xx_hal_rcc.c ****      (++)  |                 | voltage range 1  | voltage range 2  |
 193:Drivers/STM32G0xx_HAL_Driver/Src/stm32g0xx_hal_rcc.c ****      (++)  |                 |      1.2 V       |     1.0 V        |
 194:Drivers/STM32G0xx_HAL_Driver/Src/stm32g0xx_hal_rcc.c ****      (++)  |-----------------|------------------|------------------|
 195:Drivers/STM32G0xx_HAL_Driver/Src/stm32g0xx_hal_rcc.c ****      (++)  |0WS(1 CPU cycles)|  HCLK <= 24      |  HCLK <= 8       |
 196:Drivers/STM32G0xx_HAL_Driver/Src/stm32g0xx_hal_rcc.c ****      (++)  |-----------------|------------------|------------------|
 197:Drivers/STM32G0xx_HAL_Driver/Src/stm32g0xx_hal_rcc.c ****      (++)  |1WS(2 CPU cycles)|  HCLK <= 48      |  HCLK <= 16      |
 198:Drivers/STM32G0xx_HAL_Driver/Src/stm32g0xx_hal_rcc.c ****      (++)  |-----------------|------------------|------------------|
 199:Drivers/STM32G0xx_HAL_Driver/Src/stm32g0xx_hal_rcc.c ****      (++)  |2WS(3 CPU cycles)|  HCLK <= 64      |           -      |
 200:Drivers/STM32G0xx_HAL_Driver/Src/stm32g0xx_hal_rcc.c ****      (++)  |-----------------|------------------|------------------|
 201:Drivers/STM32G0xx_HAL_Driver/Src/stm32g0xx_hal_rcc.c ****    * @{
 202:Drivers/STM32G0xx_HAL_Driver/Src/stm32g0xx_hal_rcc.c ****   */
 203:Drivers/STM32G0xx_HAL_Driver/Src/stm32g0xx_hal_rcc.c **** 
ARM GAS  C:\Users\tugru\AppData\Local\Temp\ccZeWSML.s 			page 5


 204:Drivers/STM32G0xx_HAL_Driver/Src/stm32g0xx_hal_rcc.c **** /**
 205:Drivers/STM32G0xx_HAL_Driver/Src/stm32g0xx_hal_rcc.c ****   * @brief  Reset the RCC clock configuration to the default reset state.
 206:Drivers/STM32G0xx_HAL_Driver/Src/stm32g0xx_hal_rcc.c ****   * @note   The default reset state of the clock configuration is given below:
 207:Drivers/STM32G0xx_HAL_Driver/Src/stm32g0xx_hal_rcc.c ****   *            - HSI ON and used as system clock source
 208:Drivers/STM32G0xx_HAL_Driver/Src/stm32g0xx_hal_rcc.c ****   *            - HSE, PLL OFF
 209:Drivers/STM32G0xx_HAL_Driver/Src/stm32g0xx_hal_rcc.c ****   *            - AHB and APB prescaler set to 1.
 210:Drivers/STM32G0xx_HAL_Driver/Src/stm32g0xx_hal_rcc.c ****   *            - CSS, MCO1 OFF
 211:Drivers/STM32G0xx_HAL_Driver/Src/stm32g0xx_hal_rcc.c ****   *            - All interrupts disabled
 212:Drivers/STM32G0xx_HAL_Driver/Src/stm32g0xx_hal_rcc.c ****   * @note   This function does not modify the configuration of the
 213:Drivers/STM32G0xx_HAL_Driver/Src/stm32g0xx_hal_rcc.c ****   *            - Peripheral clocks
 214:Drivers/STM32G0xx_HAL_Driver/Src/stm32g0xx_hal_rcc.c ****   *            - LSI, LSE and RTC clocks
 215:Drivers/STM32G0xx_HAL_Driver/Src/stm32g0xx_hal_rcc.c ****   * @retval HAL status
 216:Drivers/STM32G0xx_HAL_Driver/Src/stm32g0xx_hal_rcc.c ****   */
 217:Drivers/STM32G0xx_HAL_Driver/Src/stm32g0xx_hal_rcc.c **** HAL_StatusTypeDef HAL_RCC_DeInit(void)
 218:Drivers/STM32G0xx_HAL_Driver/Src/stm32g0xx_hal_rcc.c **** {
  27              		.loc 1 218 1 view -0
  28              		.cfi_startproc
  29              		@ args = 0, pretend = 0, frame = 0
  30              		@ frame_needed = 0, uses_anonymous_args = 0
  31 0000 70B5     		push	{r4, r5, r6, lr}
  32              	.LCFI0:
  33              		.cfi_def_cfa_offset 16
  34              		.cfi_offset 4, -16
  35              		.cfi_offset 5, -12
  36              		.cfi_offset 6, -8
  37              		.cfi_offset 14, -4
 219:Drivers/STM32G0xx_HAL_Driver/Src/stm32g0xx_hal_rcc.c ****   uint32_t tickstart;
  38              		.loc 1 219 3 view .LVU1
 220:Drivers/STM32G0xx_HAL_Driver/Src/stm32g0xx_hal_rcc.c **** 
 221:Drivers/STM32G0xx_HAL_Driver/Src/stm32g0xx_hal_rcc.c ****   /* Get Start Tick*/
 222:Drivers/STM32G0xx_HAL_Driver/Src/stm32g0xx_hal_rcc.c ****   tickstart = HAL_GetTick();
  39              		.loc 1 222 3 view .LVU2
  40              		.loc 1 222 15 is_stmt 0 view .LVU3
  41 0002 FFF7FEFF 		bl	HAL_GetTick
  42              	.LVL0:
  43 0006 0400     		movs	r4, r0
  44              	.LVL1:
 223:Drivers/STM32G0xx_HAL_Driver/Src/stm32g0xx_hal_rcc.c **** 
 224:Drivers/STM32G0xx_HAL_Driver/Src/stm32g0xx_hal_rcc.c ****   /* Set HSION bit to the reset value */
 225:Drivers/STM32G0xx_HAL_Driver/Src/stm32g0xx_hal_rcc.c ****   SET_BIT(RCC->CR, RCC_CR_HSION);
  45              		.loc 1 225 3 is_stmt 1 view .LVU4
  46 0008 254A     		ldr	r2, .L15
  47 000a 1168     		ldr	r1, [r2]
  48 000c 8023     		movs	r3, #128
  49 000e 5B00     		lsls	r3, r3, #1
  50 0010 0B43     		orrs	r3, r1
  51 0012 1360     		str	r3, [r2]
 226:Drivers/STM32G0xx_HAL_Driver/Src/stm32g0xx_hal_rcc.c **** 
 227:Drivers/STM32G0xx_HAL_Driver/Src/stm32g0xx_hal_rcc.c ****   /* Wait till HSI is ready */
 228:Drivers/STM32G0xx_HAL_Driver/Src/stm32g0xx_hal_rcc.c ****   while (READ_BIT(RCC->CR, RCC_CR_HSIRDY) == 0U)
  52              		.loc 1 228 3 view .LVU5
  53              	.LVL2:
  54              	.L2:
  55              		.loc 1 228 9 view .LVU6
  56              		.loc 1 228 10 is_stmt 0 view .LVU7
  57 0014 224B     		ldr	r3, .L15
  58 0016 1B68     		ldr	r3, [r3]
ARM GAS  C:\Users\tugru\AppData\Local\Temp\ccZeWSML.s 			page 6


  59              		.loc 1 228 9 view .LVU8
  60 0018 5B05     		lsls	r3, r3, #21
  61 001a 06D4     		bmi	.L12
 229:Drivers/STM32G0xx_HAL_Driver/Src/stm32g0xx_hal_rcc.c ****   {
 230:Drivers/STM32G0xx_HAL_Driver/Src/stm32g0xx_hal_rcc.c ****     if ((HAL_GetTick() - tickstart) > HSI_TIMEOUT_VALUE)
  62              		.loc 1 230 5 is_stmt 1 view .LVU9
  63              		.loc 1 230 10 is_stmt 0 view .LVU10
  64 001c FFF7FEFF 		bl	HAL_GetTick
  65              	.LVL3:
  66              		.loc 1 230 24 view .LVU11
  67 0020 001B     		subs	r0, r0, r4
  68              		.loc 1 230 8 view .LVU12
  69 0022 0228     		cmp	r0, #2
  70 0024 F6D9     		bls	.L2
 231:Drivers/STM32G0xx_HAL_Driver/Src/stm32g0xx_hal_rcc.c ****     {
 232:Drivers/STM32G0xx_HAL_Driver/Src/stm32g0xx_hal_rcc.c ****       return HAL_TIMEOUT;
  71              		.loc 1 232 14 view .LVU13
  72 0026 0320     		movs	r0, #3
  73              	.L3:
 233:Drivers/STM32G0xx_HAL_Driver/Src/stm32g0xx_hal_rcc.c ****     }
 234:Drivers/STM32G0xx_HAL_Driver/Src/stm32g0xx_hal_rcc.c ****   }
 235:Drivers/STM32G0xx_HAL_Driver/Src/stm32g0xx_hal_rcc.c **** 
 236:Drivers/STM32G0xx_HAL_Driver/Src/stm32g0xx_hal_rcc.c ****   /* Set HSITRIM[6:0] bits to the reset value */
 237:Drivers/STM32G0xx_HAL_Driver/Src/stm32g0xx_hal_rcc.c ****   RCC->ICSCR = RCC_ICSCR_HSITRIM_6;
 238:Drivers/STM32G0xx_HAL_Driver/Src/stm32g0xx_hal_rcc.c **** 
 239:Drivers/STM32G0xx_HAL_Driver/Src/stm32g0xx_hal_rcc.c ****   /* Get Start Tick*/
 240:Drivers/STM32G0xx_HAL_Driver/Src/stm32g0xx_hal_rcc.c ****   tickstart = HAL_GetTick();
 241:Drivers/STM32G0xx_HAL_Driver/Src/stm32g0xx_hal_rcc.c **** 
 242:Drivers/STM32G0xx_HAL_Driver/Src/stm32g0xx_hal_rcc.c ****   /* Reset CFGR register (HSI is selected as system clock source) */
 243:Drivers/STM32G0xx_HAL_Driver/Src/stm32g0xx_hal_rcc.c ****   RCC->CFGR = 0x00000000u;
 244:Drivers/STM32G0xx_HAL_Driver/Src/stm32g0xx_hal_rcc.c **** 
 245:Drivers/STM32G0xx_HAL_Driver/Src/stm32g0xx_hal_rcc.c ****   /* Wait till HSI is ready */
 246:Drivers/STM32G0xx_HAL_Driver/Src/stm32g0xx_hal_rcc.c ****   while (READ_BIT(RCC->CFGR, RCC_CFGR_SWS) != 0U)
 247:Drivers/STM32G0xx_HAL_Driver/Src/stm32g0xx_hal_rcc.c ****   {
 248:Drivers/STM32G0xx_HAL_Driver/Src/stm32g0xx_hal_rcc.c ****     if ((HAL_GetTick() - tickstart) > CLOCKSWITCH_TIMEOUT_VALUE)
 249:Drivers/STM32G0xx_HAL_Driver/Src/stm32g0xx_hal_rcc.c ****     {
 250:Drivers/STM32G0xx_HAL_Driver/Src/stm32g0xx_hal_rcc.c ****       return HAL_TIMEOUT;
 251:Drivers/STM32G0xx_HAL_Driver/Src/stm32g0xx_hal_rcc.c ****     }
 252:Drivers/STM32G0xx_HAL_Driver/Src/stm32g0xx_hal_rcc.c ****   }
 253:Drivers/STM32G0xx_HAL_Driver/Src/stm32g0xx_hal_rcc.c **** 
 254:Drivers/STM32G0xx_HAL_Driver/Src/stm32g0xx_hal_rcc.c ****   /* Clear CR register in 2 steps: first to clear HSEON in case bypass was enabled */
 255:Drivers/STM32G0xx_HAL_Driver/Src/stm32g0xx_hal_rcc.c ****   RCC->CR = RCC_CR_HSION;
 256:Drivers/STM32G0xx_HAL_Driver/Src/stm32g0xx_hal_rcc.c **** 
 257:Drivers/STM32G0xx_HAL_Driver/Src/stm32g0xx_hal_rcc.c ****   /* Then again to HSEBYP in case bypass was enabled */
 258:Drivers/STM32G0xx_HAL_Driver/Src/stm32g0xx_hal_rcc.c ****   RCC->CR = RCC_CR_HSION;
 259:Drivers/STM32G0xx_HAL_Driver/Src/stm32g0xx_hal_rcc.c **** 
 260:Drivers/STM32G0xx_HAL_Driver/Src/stm32g0xx_hal_rcc.c ****   /* Get Start Tick*/
 261:Drivers/STM32G0xx_HAL_Driver/Src/stm32g0xx_hal_rcc.c ****   tickstart = HAL_GetTick();
 262:Drivers/STM32G0xx_HAL_Driver/Src/stm32g0xx_hal_rcc.c **** 
 263:Drivers/STM32G0xx_HAL_Driver/Src/stm32g0xx_hal_rcc.c ****   /* Wait till PLL is ready */
 264:Drivers/STM32G0xx_HAL_Driver/Src/stm32g0xx_hal_rcc.c ****   while (READ_BIT(RCC->CR, RCC_CR_PLLRDY) != 0U)
 265:Drivers/STM32G0xx_HAL_Driver/Src/stm32g0xx_hal_rcc.c ****   {
 266:Drivers/STM32G0xx_HAL_Driver/Src/stm32g0xx_hal_rcc.c ****     if ((HAL_GetTick() - tickstart) > PLL_TIMEOUT_VALUE)
 267:Drivers/STM32G0xx_HAL_Driver/Src/stm32g0xx_hal_rcc.c ****     {
 268:Drivers/STM32G0xx_HAL_Driver/Src/stm32g0xx_hal_rcc.c ****       return HAL_TIMEOUT;
 269:Drivers/STM32G0xx_HAL_Driver/Src/stm32g0xx_hal_rcc.c ****     }
 270:Drivers/STM32G0xx_HAL_Driver/Src/stm32g0xx_hal_rcc.c ****   }
ARM GAS  C:\Users\tugru\AppData\Local\Temp\ccZeWSML.s 			page 7


 271:Drivers/STM32G0xx_HAL_Driver/Src/stm32g0xx_hal_rcc.c **** 
 272:Drivers/STM32G0xx_HAL_Driver/Src/stm32g0xx_hal_rcc.c ****   /* once PLL is OFF, reset PLLCFGR register to default value */
 273:Drivers/STM32G0xx_HAL_Driver/Src/stm32g0xx_hal_rcc.c ****   RCC->PLLCFGR = RCC_PLLCFGR_PLLN_4;
 274:Drivers/STM32G0xx_HAL_Driver/Src/stm32g0xx_hal_rcc.c **** 
 275:Drivers/STM32G0xx_HAL_Driver/Src/stm32g0xx_hal_rcc.c ****   /* Disable all interrupts */
 276:Drivers/STM32G0xx_HAL_Driver/Src/stm32g0xx_hal_rcc.c ****   RCC->CIER = 0x00000000u;
 277:Drivers/STM32G0xx_HAL_Driver/Src/stm32g0xx_hal_rcc.c **** 
 278:Drivers/STM32G0xx_HAL_Driver/Src/stm32g0xx_hal_rcc.c ****   /* Clear all flags */
 279:Drivers/STM32G0xx_HAL_Driver/Src/stm32g0xx_hal_rcc.c ****   RCC->CICR = 0xFFFFFFFFu;
 280:Drivers/STM32G0xx_HAL_Driver/Src/stm32g0xx_hal_rcc.c **** 
 281:Drivers/STM32G0xx_HAL_Driver/Src/stm32g0xx_hal_rcc.c ****   /* Update the SystemCoreClock global variable */
 282:Drivers/STM32G0xx_HAL_Driver/Src/stm32g0xx_hal_rcc.c ****   SystemCoreClock = HSI_VALUE;
 283:Drivers/STM32G0xx_HAL_Driver/Src/stm32g0xx_hal_rcc.c **** 
 284:Drivers/STM32G0xx_HAL_Driver/Src/stm32g0xx_hal_rcc.c ****   /* Adapt Systick interrupt period */
 285:Drivers/STM32G0xx_HAL_Driver/Src/stm32g0xx_hal_rcc.c ****   if (HAL_InitTick(uwTickPrio) != HAL_OK)
 286:Drivers/STM32G0xx_HAL_Driver/Src/stm32g0xx_hal_rcc.c ****   {
 287:Drivers/STM32G0xx_HAL_Driver/Src/stm32g0xx_hal_rcc.c ****     return HAL_ERROR;
 288:Drivers/STM32G0xx_HAL_Driver/Src/stm32g0xx_hal_rcc.c ****   }
 289:Drivers/STM32G0xx_HAL_Driver/Src/stm32g0xx_hal_rcc.c ****   else
 290:Drivers/STM32G0xx_HAL_Driver/Src/stm32g0xx_hal_rcc.c ****   {
 291:Drivers/STM32G0xx_HAL_Driver/Src/stm32g0xx_hal_rcc.c ****     return HAL_OK;
 292:Drivers/STM32G0xx_HAL_Driver/Src/stm32g0xx_hal_rcc.c ****   }
 293:Drivers/STM32G0xx_HAL_Driver/Src/stm32g0xx_hal_rcc.c **** }
  74              		.loc 1 293 1 view .LVU14
  75              		@ sp needed
  76              	.LVL4:
  77              		.loc 1 293 1 view .LVU15
  78 0028 70BD     		pop	{r4, r5, r6, pc}
  79              	.LVL5:
  80              	.L12:
 237:Drivers/STM32G0xx_HAL_Driver/Src/stm32g0xx_hal_rcc.c **** 
  81              		.loc 1 237 3 is_stmt 1 view .LVU16
 237:Drivers/STM32G0xx_HAL_Driver/Src/stm32g0xx_hal_rcc.c **** 
  82              		.loc 1 237 14 is_stmt 0 view .LVU17
  83 002a 1D4D     		ldr	r5, .L15
  84 002c 8023     		movs	r3, #128
  85 002e DB01     		lsls	r3, r3, #7
  86 0030 6B60     		str	r3, [r5, #4]
 240:Drivers/STM32G0xx_HAL_Driver/Src/stm32g0xx_hal_rcc.c **** 
  87              		.loc 1 240 3 is_stmt 1 view .LVU18
 240:Drivers/STM32G0xx_HAL_Driver/Src/stm32g0xx_hal_rcc.c **** 
  88              		.loc 1 240 15 is_stmt 0 view .LVU19
  89 0032 FFF7FEFF 		bl	HAL_GetTick
  90              	.LVL6:
  91 0036 0400     		movs	r4, r0
  92              	.LVL7:
 243:Drivers/STM32G0xx_HAL_Driver/Src/stm32g0xx_hal_rcc.c **** 
  93              		.loc 1 243 3 is_stmt 1 view .LVU20
 243:Drivers/STM32G0xx_HAL_Driver/Src/stm32g0xx_hal_rcc.c **** 
  94              		.loc 1 243 13 is_stmt 0 view .LVU21
  95 0038 0023     		movs	r3, #0
  96 003a AB60     		str	r3, [r5, #8]
 246:Drivers/STM32G0xx_HAL_Driver/Src/stm32g0xx_hal_rcc.c ****   {
  97              		.loc 1 246 3 is_stmt 1 view .LVU22
  98              	.LVL8:
  99              	.L5:
 246:Drivers/STM32G0xx_HAL_Driver/Src/stm32g0xx_hal_rcc.c ****   {
ARM GAS  C:\Users\tugru\AppData\Local\Temp\ccZeWSML.s 			page 8


 100              		.loc 1 246 9 view .LVU23
 246:Drivers/STM32G0xx_HAL_Driver/Src/stm32g0xx_hal_rcc.c ****   {
 101              		.loc 1 246 10 is_stmt 0 view .LVU24
 102 003c 184B     		ldr	r3, .L15
 103 003e 9B68     		ldr	r3, [r3, #8]
 104 0040 3822     		movs	r2, #56
 246:Drivers/STM32G0xx_HAL_Driver/Src/stm32g0xx_hal_rcc.c ****   {
 105              		.loc 1 246 9 view .LVU25
 106 0042 1A42     		tst	r2, r3
 107 0044 07D0     		beq	.L13
 248:Drivers/STM32G0xx_HAL_Driver/Src/stm32g0xx_hal_rcc.c ****     {
 108              		.loc 1 248 5 is_stmt 1 view .LVU26
 248:Drivers/STM32G0xx_HAL_Driver/Src/stm32g0xx_hal_rcc.c ****     {
 109              		.loc 1 248 10 is_stmt 0 view .LVU27
 110 0046 FFF7FEFF 		bl	HAL_GetTick
 111              	.LVL9:
 248:Drivers/STM32G0xx_HAL_Driver/Src/stm32g0xx_hal_rcc.c ****     {
 112              		.loc 1 248 24 view .LVU28
 113 004a 001B     		subs	r0, r0, r4
 248:Drivers/STM32G0xx_HAL_Driver/Src/stm32g0xx_hal_rcc.c ****     {
 114              		.loc 1 248 8 view .LVU29
 115 004c 154B     		ldr	r3, .L15+4
 116 004e 9842     		cmp	r0, r3
 117 0050 F4D9     		bls	.L5
 250:Drivers/STM32G0xx_HAL_Driver/Src/stm32g0xx_hal_rcc.c ****     }
 118              		.loc 1 250 14 view .LVU30
 119 0052 0320     		movs	r0, #3
 120 0054 E8E7     		b	.L3
 121              	.L13:
 255:Drivers/STM32G0xx_HAL_Driver/Src/stm32g0xx_hal_rcc.c **** 
 122              		.loc 1 255 3 is_stmt 1 view .LVU31
 255:Drivers/STM32G0xx_HAL_Driver/Src/stm32g0xx_hal_rcc.c **** 
 123              		.loc 1 255 11 is_stmt 0 view .LVU32
 124 0056 124B     		ldr	r3, .L15
 125 0058 C832     		adds	r2, r2, #200
 126 005a 1A60     		str	r2, [r3]
 258:Drivers/STM32G0xx_HAL_Driver/Src/stm32g0xx_hal_rcc.c **** 
 127              		.loc 1 258 3 is_stmt 1 view .LVU33
 258:Drivers/STM32G0xx_HAL_Driver/Src/stm32g0xx_hal_rcc.c **** 
 128              		.loc 1 258 11 is_stmt 0 view .LVU34
 129 005c 1A60     		str	r2, [r3]
 261:Drivers/STM32G0xx_HAL_Driver/Src/stm32g0xx_hal_rcc.c **** 
 130              		.loc 1 261 3 is_stmt 1 view .LVU35
 261:Drivers/STM32G0xx_HAL_Driver/Src/stm32g0xx_hal_rcc.c **** 
 131              		.loc 1 261 15 is_stmt 0 view .LVU36
 132 005e FFF7FEFF 		bl	HAL_GetTick
 133              	.LVL10:
 134 0062 0400     		movs	r4, r0
 135              	.LVL11:
 264:Drivers/STM32G0xx_HAL_Driver/Src/stm32g0xx_hal_rcc.c ****   {
 136              		.loc 1 264 3 is_stmt 1 view .LVU37
 137              	.L7:
 264:Drivers/STM32G0xx_HAL_Driver/Src/stm32g0xx_hal_rcc.c ****   {
 138              		.loc 1 264 9 view .LVU38
 264:Drivers/STM32G0xx_HAL_Driver/Src/stm32g0xx_hal_rcc.c ****   {
 139              		.loc 1 264 10 is_stmt 0 view .LVU39
 140 0064 0E4B     		ldr	r3, .L15
ARM GAS  C:\Users\tugru\AppData\Local\Temp\ccZeWSML.s 			page 9


 141 0066 1B68     		ldr	r3, [r3]
 264:Drivers/STM32G0xx_HAL_Driver/Src/stm32g0xx_hal_rcc.c ****   {
 142              		.loc 1 264 9 view .LVU40
 143 0068 9B01     		lsls	r3, r3, #6
 144 006a 06D5     		bpl	.L14
 266:Drivers/STM32G0xx_HAL_Driver/Src/stm32g0xx_hal_rcc.c ****     {
 145              		.loc 1 266 5 is_stmt 1 view .LVU41
 266:Drivers/STM32G0xx_HAL_Driver/Src/stm32g0xx_hal_rcc.c ****     {
 146              		.loc 1 266 10 is_stmt 0 view .LVU42
 147 006c FFF7FEFF 		bl	HAL_GetTick
 148              	.LVL12:
 266:Drivers/STM32G0xx_HAL_Driver/Src/stm32g0xx_hal_rcc.c ****     {
 149              		.loc 1 266 24 view .LVU43
 150 0070 001B     		subs	r0, r0, r4
 266:Drivers/STM32G0xx_HAL_Driver/Src/stm32g0xx_hal_rcc.c ****     {
 151              		.loc 1 266 8 view .LVU44
 152 0072 0228     		cmp	r0, #2
 153 0074 F6D9     		bls	.L7
 268:Drivers/STM32G0xx_HAL_Driver/Src/stm32g0xx_hal_rcc.c ****     }
 154              		.loc 1 268 14 view .LVU45
 155 0076 0320     		movs	r0, #3
 156 0078 D6E7     		b	.L3
 157              	.L14:
 273:Drivers/STM32G0xx_HAL_Driver/Src/stm32g0xx_hal_rcc.c **** 
 158              		.loc 1 273 3 is_stmt 1 view .LVU46
 273:Drivers/STM32G0xx_HAL_Driver/Src/stm32g0xx_hal_rcc.c **** 
 159              		.loc 1 273 16 is_stmt 0 view .LVU47
 160 007a 094B     		ldr	r3, .L15
 161 007c 8022     		movs	r2, #128
 162 007e 5201     		lsls	r2, r2, #5
 163 0080 DA60     		str	r2, [r3, #12]
 276:Drivers/STM32G0xx_HAL_Driver/Src/stm32g0xx_hal_rcc.c **** 
 164              		.loc 1 276 3 is_stmt 1 view .LVU48
 276:Drivers/STM32G0xx_HAL_Driver/Src/stm32g0xx_hal_rcc.c **** 
 165              		.loc 1 276 13 is_stmt 0 view .LVU49
 166 0082 0022     		movs	r2, #0
 167 0084 9A61     		str	r2, [r3, #24]
 279:Drivers/STM32G0xx_HAL_Driver/Src/stm32g0xx_hal_rcc.c **** 
 168              		.loc 1 279 3 is_stmt 1 view .LVU50
 279:Drivers/STM32G0xx_HAL_Driver/Src/stm32g0xx_hal_rcc.c **** 
 169              		.loc 1 279 13 is_stmt 0 view .LVU51
 170 0086 013A     		subs	r2, r2, #1
 171 0088 1A62     		str	r2, [r3, #32]
 282:Drivers/STM32G0xx_HAL_Driver/Src/stm32g0xx_hal_rcc.c **** 
 172              		.loc 1 282 3 is_stmt 1 view .LVU52
 282:Drivers/STM32G0xx_HAL_Driver/Src/stm32g0xx_hal_rcc.c **** 
 173              		.loc 1 282 19 is_stmt 0 view .LVU53
 174 008a 074B     		ldr	r3, .L15+8
 175 008c 074A     		ldr	r2, .L15+12
 176 008e 1A60     		str	r2, [r3]
 285:Drivers/STM32G0xx_HAL_Driver/Src/stm32g0xx_hal_rcc.c ****   {
 177              		.loc 1 285 3 is_stmt 1 view .LVU54
 285:Drivers/STM32G0xx_HAL_Driver/Src/stm32g0xx_hal_rcc.c ****   {
 178              		.loc 1 285 7 is_stmt 0 view .LVU55
 179 0090 074B     		ldr	r3, .L15+16
 180 0092 1868     		ldr	r0, [r3]
 181 0094 FFF7FEFF 		bl	HAL_InitTick
ARM GAS  C:\Users\tugru\AppData\Local\Temp\ccZeWSML.s 			page 10


 182              	.LVL13:
 285:Drivers/STM32G0xx_HAL_Driver/Src/stm32g0xx_hal_rcc.c ****   {
 183              		.loc 1 285 6 view .LVU56
 184 0098 0028     		cmp	r0, #0
 185 009a C5D0     		beq	.L3
 287:Drivers/STM32G0xx_HAL_Driver/Src/stm32g0xx_hal_rcc.c ****   }
 186              		.loc 1 287 12 view .LVU57
 187 009c 0120     		movs	r0, #1
 188 009e C3E7     		b	.L3
 189              	.L16:
 190              		.align	2
 191              	.L15:
 192 00a0 00100240 		.word	1073876992
 193 00a4 88130000 		.word	5000
 194 00a8 00000000 		.word	SystemCoreClock
 195 00ac 0024F400 		.word	16000000
 196 00b0 00000000 		.word	uwTickPrio
 197              		.cfi_endproc
 198              	.LFE310:
 200              		.section	.text.HAL_RCC_OscConfig,"ax",%progbits
 201              		.align	1
 202              		.global	HAL_RCC_OscConfig
 203              		.syntax unified
 204              		.code	16
 205              		.thumb_func
 207              	HAL_RCC_OscConfig:
 208              	.LVL14:
 209              	.LFB311:
 294:Drivers/STM32G0xx_HAL_Driver/Src/stm32g0xx_hal_rcc.c **** 
 295:Drivers/STM32G0xx_HAL_Driver/Src/stm32g0xx_hal_rcc.c **** /**
 296:Drivers/STM32G0xx_HAL_Driver/Src/stm32g0xx_hal_rcc.c ****   * @brief  Initialize the RCC Oscillators according to the specified parameters in the
 297:Drivers/STM32G0xx_HAL_Driver/Src/stm32g0xx_hal_rcc.c ****   *         @ref RCC_OscInitTypeDef.
 298:Drivers/STM32G0xx_HAL_Driver/Src/stm32g0xx_hal_rcc.c ****   * @param  RCC_OscInitStruct pointer to a @ref RCC_OscInitTypeDef structure that
 299:Drivers/STM32G0xx_HAL_Driver/Src/stm32g0xx_hal_rcc.c ****   *         contains the configuration information for the RCC Oscillators.
 300:Drivers/STM32G0xx_HAL_Driver/Src/stm32g0xx_hal_rcc.c ****   * @note   The PLL is not disabled when used as system clock.
 301:Drivers/STM32G0xx_HAL_Driver/Src/stm32g0xx_hal_rcc.c ****   * @note   Transition HSE Bypass to HSE On and HSE On to HSE Bypass are not
 302:Drivers/STM32G0xx_HAL_Driver/Src/stm32g0xx_hal_rcc.c ****   *         supported by this function. User should request a transition to HSE Off
 303:Drivers/STM32G0xx_HAL_Driver/Src/stm32g0xx_hal_rcc.c ****   *         first and then to HSE On or HSE Bypass.
 304:Drivers/STM32G0xx_HAL_Driver/Src/stm32g0xx_hal_rcc.c ****   * @note   Transition LSE Bypass to LSE On and LSE On to LSE Bypass are not
 305:Drivers/STM32G0xx_HAL_Driver/Src/stm32g0xx_hal_rcc.c ****   *         supported by this function. User should request a transition to LSE Off
 306:Drivers/STM32G0xx_HAL_Driver/Src/stm32g0xx_hal_rcc.c ****   *         first and then to LSE On or LSE Bypass.
 307:Drivers/STM32G0xx_HAL_Driver/Src/stm32g0xx_hal_rcc.c ****   * @retval HAL status
 308:Drivers/STM32G0xx_HAL_Driver/Src/stm32g0xx_hal_rcc.c ****   */
 309:Drivers/STM32G0xx_HAL_Driver/Src/stm32g0xx_hal_rcc.c **** HAL_StatusTypeDef HAL_RCC_OscConfig(RCC_OscInitTypeDef  *RCC_OscInitStruct)
 310:Drivers/STM32G0xx_HAL_Driver/Src/stm32g0xx_hal_rcc.c **** {
 210              		.loc 1 310 1 is_stmt 1 view -0
 211              		.cfi_startproc
 212              		@ args = 0, pretend = 0, frame = 8
 213              		@ frame_needed = 0, uses_anonymous_args = 0
 214              		.loc 1 310 1 is_stmt 0 view .LVU59
 215 0000 70B5     		push	{r4, r5, r6, lr}
 216              	.LCFI1:
 217              		.cfi_def_cfa_offset 16
 218              		.cfi_offset 4, -16
 219              		.cfi_offset 5, -12
 220              		.cfi_offset 6, -8
 221              		.cfi_offset 14, -4
ARM GAS  C:\Users\tugru\AppData\Local\Temp\ccZeWSML.s 			page 11


 222 0002 82B0     		sub	sp, sp, #8
 223              	.LCFI2:
 224              		.cfi_def_cfa_offset 24
 225 0004 041E     		subs	r4, r0, #0
 311:Drivers/STM32G0xx_HAL_Driver/Src/stm32g0xx_hal_rcc.c ****   uint32_t tickstart;
 226              		.loc 1 311 3 is_stmt 1 view .LVU60
 312:Drivers/STM32G0xx_HAL_Driver/Src/stm32g0xx_hal_rcc.c ****   uint32_t temp_sysclksrc;
 227              		.loc 1 312 3 view .LVU61
 313:Drivers/STM32G0xx_HAL_Driver/Src/stm32g0xx_hal_rcc.c ****   uint32_t temp_pllckcfg;
 228              		.loc 1 313 3 view .LVU62
 314:Drivers/STM32G0xx_HAL_Driver/Src/stm32g0xx_hal_rcc.c **** 
 315:Drivers/STM32G0xx_HAL_Driver/Src/stm32g0xx_hal_rcc.c ****   /* Check Null pointer */
 316:Drivers/STM32G0xx_HAL_Driver/Src/stm32g0xx_hal_rcc.c ****   if (RCC_OscInitStruct == NULL)
 229              		.loc 1 316 3 view .LVU63
 230              		.loc 1 316 6 is_stmt 0 view .LVU64
 231 0006 00D1     		bne	.LCB183
 232 0008 29E2     		b	.L72	@long jump
 233              	.LCB183:
 317:Drivers/STM32G0xx_HAL_Driver/Src/stm32g0xx_hal_rcc.c ****   {
 318:Drivers/STM32G0xx_HAL_Driver/Src/stm32g0xx_hal_rcc.c ****     return HAL_ERROR;
 319:Drivers/STM32G0xx_HAL_Driver/Src/stm32g0xx_hal_rcc.c ****   }
 320:Drivers/STM32G0xx_HAL_Driver/Src/stm32g0xx_hal_rcc.c **** 
 321:Drivers/STM32G0xx_HAL_Driver/Src/stm32g0xx_hal_rcc.c ****   /* Check the parameters */
 322:Drivers/STM32G0xx_HAL_Driver/Src/stm32g0xx_hal_rcc.c ****   assert_param(IS_RCC_OSCILLATORTYPE(RCC_OscInitStruct->OscillatorType));
 234              		.loc 1 322 3 is_stmt 1 view .LVU65
 323:Drivers/STM32G0xx_HAL_Driver/Src/stm32g0xx_hal_rcc.c **** 
 324:Drivers/STM32G0xx_HAL_Driver/Src/stm32g0xx_hal_rcc.c ****   /*------------------------------- HSE Configuration ------------------------*/
 325:Drivers/STM32G0xx_HAL_Driver/Src/stm32g0xx_hal_rcc.c ****   if (((RCC_OscInitStruct->OscillatorType) & RCC_OSCILLATORTYPE_HSE) == RCC_OSCILLATORTYPE_HSE)
 235              		.loc 1 325 3 view .LVU66
 236              		.loc 1 325 6 is_stmt 0 view .LVU67
 237 000a 0368     		ldr	r3, [r0]
 238 000c DB07     		lsls	r3, r3, #31
 239 000e 39D5     		bpl	.L19
 326:Drivers/STM32G0xx_HAL_Driver/Src/stm32g0xx_hal_rcc.c ****   {
 327:Drivers/STM32G0xx_HAL_Driver/Src/stm32g0xx_hal_rcc.c ****     /* Check the parameters */
 328:Drivers/STM32G0xx_HAL_Driver/Src/stm32g0xx_hal_rcc.c ****     assert_param(IS_RCC_HSE(RCC_OscInitStruct->HSEState));
 240              		.loc 1 328 5 is_stmt 1 view .LVU68
 329:Drivers/STM32G0xx_HAL_Driver/Src/stm32g0xx_hal_rcc.c **** 
 330:Drivers/STM32G0xx_HAL_Driver/Src/stm32g0xx_hal_rcc.c ****     temp_sysclksrc = __HAL_RCC_GET_SYSCLK_SOURCE();
 241              		.loc 1 330 5 view .LVU69
 242              		.loc 1 330 22 is_stmt 0 view .LVU70
 243 0010 C14A     		ldr	r2, .L116
 244 0012 9168     		ldr	r1, [r2, #8]
 245              		.loc 1 330 20 view .LVU71
 246 0014 3823     		movs	r3, #56
 247 0016 0B40     		ands	r3, r1
 248              	.LVL15:
 331:Drivers/STM32G0xx_HAL_Driver/Src/stm32g0xx_hal_rcc.c ****     temp_pllckcfg = __HAL_RCC_GET_PLL_OSCSOURCE();
 249              		.loc 1 331 5 is_stmt 1 view .LVU72
 250              		.loc 1 331 21 is_stmt 0 view .LVU73
 251 0018 D168     		ldr	r1, [r2, #12]
 252              		.loc 1 331 19 view .LVU74
 253 001a 0322     		movs	r2, #3
 254 001c 0A40     		ands	r2, r1
 255              	.LVL16:
 332:Drivers/STM32G0xx_HAL_Driver/Src/stm32g0xx_hal_rcc.c **** 
 333:Drivers/STM32G0xx_HAL_Driver/Src/stm32g0xx_hal_rcc.c ****     /* When the HSE is used as system clock or clock source for PLL in these cases it is not allowe
ARM GAS  C:\Users\tugru\AppData\Local\Temp\ccZeWSML.s 			page 12


 334:Drivers/STM32G0xx_HAL_Driver/Src/stm32g0xx_hal_rcc.c ****     if (((temp_sysclksrc == RCC_SYSCLKSOURCE_STATUS_PLLCLK) && (temp_pllckcfg == RCC_PLLSOURCE_HSE)
 256              		.loc 1 334 5 is_stmt 1 view .LVU75
 257              		.loc 1 334 8 is_stmt 0 view .LVU76
 258 001e 102B     		cmp	r3, #16
 259 0020 26D0     		beq	.L98
 260              	.L20:
 335:Drivers/STM32G0xx_HAL_Driver/Src/stm32g0xx_hal_rcc.c ****         || (temp_sysclksrc == RCC_SYSCLKSOURCE_STATUS_HSE))
 261              		.loc 1 335 9 view .LVU77
 262 0022 082B     		cmp	r3, #8
 263 0024 26D0     		beq	.L21
 336:Drivers/STM32G0xx_HAL_Driver/Src/stm32g0xx_hal_rcc.c ****     {
 337:Drivers/STM32G0xx_HAL_Driver/Src/stm32g0xx_hal_rcc.c ****       if ((READ_BIT(RCC->CR, RCC_CR_HSERDY) != 0U) && (RCC_OscInitStruct->HSEState == RCC_HSE_OFF))
 338:Drivers/STM32G0xx_HAL_Driver/Src/stm32g0xx_hal_rcc.c ****       {
 339:Drivers/STM32G0xx_HAL_Driver/Src/stm32g0xx_hal_rcc.c ****         return HAL_ERROR;
 340:Drivers/STM32G0xx_HAL_Driver/Src/stm32g0xx_hal_rcc.c ****       }
 341:Drivers/STM32G0xx_HAL_Driver/Src/stm32g0xx_hal_rcc.c ****     }
 342:Drivers/STM32G0xx_HAL_Driver/Src/stm32g0xx_hal_rcc.c ****     else
 343:Drivers/STM32G0xx_HAL_Driver/Src/stm32g0xx_hal_rcc.c ****     {
 344:Drivers/STM32G0xx_HAL_Driver/Src/stm32g0xx_hal_rcc.c ****       /* Set the new HSE configuration ---------------------------------------*/
 345:Drivers/STM32G0xx_HAL_Driver/Src/stm32g0xx_hal_rcc.c ****       __HAL_RCC_HSE_CONFIG(RCC_OscInitStruct->HSEState);
 264              		.loc 1 345 7 is_stmt 1 view .LVU78
 265              		.loc 1 345 7 view .LVU79
 266 0026 6368     		ldr	r3, [r4, #4]
 267              	.LVL17:
 268              		.loc 1 345 7 is_stmt 0 view .LVU80
 269 0028 8022     		movs	r2, #128
 270              	.LVL18:
 271              		.loc 1 345 7 view .LVU81
 272 002a 5202     		lsls	r2, r2, #9
 273 002c 9342     		cmp	r3, r2
 274 002e 7FD0     		beq	.L99
 275              		.loc 1 345 7 is_stmt 1 discriminator 2 view .LVU82
 276 0030 A022     		movs	r2, #160
 277 0032 D202     		lsls	r2, r2, #11
 278 0034 9342     		cmp	r3, r2
 279 0036 00D1     		bne	.LCB223
 280 0038 81E0     		b	.L100	@long jump
 281              	.LCB223:
 282              		.loc 1 345 7 discriminator 5 view .LVU83
 283 003a B74B     		ldr	r3, .L116
 284 003c 1A68     		ldr	r2, [r3]
 285 003e B749     		ldr	r1, .L116+4
 286              	.LVL19:
 287              		.loc 1 345 7 is_stmt 0 discriminator 5 view .LVU84
 288 0040 0A40     		ands	r2, r1
 289 0042 1A60     		str	r2, [r3]
 290              		.loc 1 345 7 is_stmt 1 discriminator 5 view .LVU85
 291 0044 1A68     		ldr	r2, [r3]
 292 0046 B649     		ldr	r1, .L116+8
 293 0048 0A40     		ands	r2, r1
 294 004a 1A60     		str	r2, [r3]
 295              	.L24:
 296              		.loc 1 345 7 discriminator 7 view .LVU86
 346:Drivers/STM32G0xx_HAL_Driver/Src/stm32g0xx_hal_rcc.c **** 
 347:Drivers/STM32G0xx_HAL_Driver/Src/stm32g0xx_hal_rcc.c ****       /* Check the HSE State */
 348:Drivers/STM32G0xx_HAL_Driver/Src/stm32g0xx_hal_rcc.c ****       if (RCC_OscInitStruct->HSEState != RCC_HSE_OFF)
 297              		.loc 1 348 7 discriminator 7 view .LVU87
ARM GAS  C:\Users\tugru\AppData\Local\Temp\ccZeWSML.s 			page 13


 298              		.loc 1 348 10 is_stmt 0 discriminator 7 view .LVU88
 299 004c 6368     		ldr	r3, [r4, #4]
 300 004e 002B     		cmp	r3, #0
 301 0050 00D1     		bne	.LCB243
 302 0052 80E0     		b	.L26	@long jump
 303              	.LCB243:
 349:Drivers/STM32G0xx_HAL_Driver/Src/stm32g0xx_hal_rcc.c ****       {
 350:Drivers/STM32G0xx_HAL_Driver/Src/stm32g0xx_hal_rcc.c ****         /* Get Start Tick*/
 351:Drivers/STM32G0xx_HAL_Driver/Src/stm32g0xx_hal_rcc.c ****         tickstart = HAL_GetTick();
 304              		.loc 1 351 9 is_stmt 1 view .LVU89
 305              		.loc 1 351 21 is_stmt 0 view .LVU90
 306 0054 FFF7FEFF 		bl	HAL_GetTick
 307              	.LVL20:
 308              		.loc 1 351 21 view .LVU91
 309 0058 0500     		movs	r5, r0
 310              	.LVL21:
 352:Drivers/STM32G0xx_HAL_Driver/Src/stm32g0xx_hal_rcc.c **** 
 353:Drivers/STM32G0xx_HAL_Driver/Src/stm32g0xx_hal_rcc.c ****         /* Wait till HSE is ready */
 354:Drivers/STM32G0xx_HAL_Driver/Src/stm32g0xx_hal_rcc.c ****         while (READ_BIT(RCC->CR, RCC_CR_HSERDY) == 0U)
 311              		.loc 1 354 9 is_stmt 1 view .LVU92
 312              	.L27:
 313              		.loc 1 354 15 view .LVU93
 314              		.loc 1 354 16 is_stmt 0 view .LVU94
 315 005a AF4B     		ldr	r3, .L116
 316 005c 1B68     		ldr	r3, [r3]
 317              		.loc 1 354 15 view .LVU95
 318 005e 9B03     		lsls	r3, r3, #14
 319 0060 10D4     		bmi	.L19
 355:Drivers/STM32G0xx_HAL_Driver/Src/stm32g0xx_hal_rcc.c ****         {
 356:Drivers/STM32G0xx_HAL_Driver/Src/stm32g0xx_hal_rcc.c ****           if ((HAL_GetTick() - tickstart) > HSE_TIMEOUT_VALUE)
 320              		.loc 1 356 11 is_stmt 1 view .LVU96
 321              		.loc 1 356 16 is_stmt 0 view .LVU97
 322 0062 FFF7FEFF 		bl	HAL_GetTick
 323              	.LVL22:
 324              		.loc 1 356 30 view .LVU98
 325 0066 401B     		subs	r0, r0, r5
 326              		.loc 1 356 14 view .LVU99
 327 0068 6428     		cmp	r0, #100
 328 006a F6D9     		bls	.L27
 357:Drivers/STM32G0xx_HAL_Driver/Src/stm32g0xx_hal_rcc.c ****           {
 358:Drivers/STM32G0xx_HAL_Driver/Src/stm32g0xx_hal_rcc.c ****             return HAL_TIMEOUT;
 329              		.loc 1 358 20 view .LVU100
 330 006c 0320     		movs	r0, #3
 331              		.loc 1 358 20 view .LVU101
 332 006e F7E1     		b	.L18
 333              	.LVL23:
 334              	.L98:
 334:Drivers/STM32G0xx_HAL_Driver/Src/stm32g0xx_hal_rcc.c ****         || (temp_sysclksrc == RCC_SYSCLKSOURCE_STATUS_HSE))
 335              		.loc 1 334 61 discriminator 1 view .LVU102
 336 0070 032A     		cmp	r2, #3
 337 0072 D6D1     		bne	.L20
 338              	.L21:
 337:Drivers/STM32G0xx_HAL_Driver/Src/stm32g0xx_hal_rcc.c ****       {
 339              		.loc 1 337 7 is_stmt 1 view .LVU103
 337:Drivers/STM32G0xx_HAL_Driver/Src/stm32g0xx_hal_rcc.c ****       {
 340              		.loc 1 337 12 is_stmt 0 view .LVU104
 341 0074 A84B     		ldr	r3, .L116
ARM GAS  C:\Users\tugru\AppData\Local\Temp\ccZeWSML.s 			page 14


 342              	.LVL24:
 337:Drivers/STM32G0xx_HAL_Driver/Src/stm32g0xx_hal_rcc.c ****       {
 343              		.loc 1 337 12 view .LVU105
 344 0076 1B68     		ldr	r3, [r3]
 337:Drivers/STM32G0xx_HAL_Driver/Src/stm32g0xx_hal_rcc.c ****       {
 345              		.loc 1 337 10 view .LVU106
 346 0078 9B03     		lsls	r3, r3, #14
 347 007a 03D5     		bpl	.L19
 337:Drivers/STM32G0xx_HAL_Driver/Src/stm32g0xx_hal_rcc.c ****       {
 348              		.loc 1 337 52 discriminator 1 view .LVU107
 349 007c 6368     		ldr	r3, [r4, #4]
 350 007e 002B     		cmp	r3, #0
 351 0080 00D1     		bne	.LCB290
 352 0082 EFE1     		b	.L101	@long jump
 353              	.LCB290:
 354              	.LVL25:
 355              	.L19:
 359:Drivers/STM32G0xx_HAL_Driver/Src/stm32g0xx_hal_rcc.c ****           }
 360:Drivers/STM32G0xx_HAL_Driver/Src/stm32g0xx_hal_rcc.c ****         }
 361:Drivers/STM32G0xx_HAL_Driver/Src/stm32g0xx_hal_rcc.c ****       }
 362:Drivers/STM32G0xx_HAL_Driver/Src/stm32g0xx_hal_rcc.c ****       else
 363:Drivers/STM32G0xx_HAL_Driver/Src/stm32g0xx_hal_rcc.c ****       {
 364:Drivers/STM32G0xx_HAL_Driver/Src/stm32g0xx_hal_rcc.c ****         /* Get Start Tick*/
 365:Drivers/STM32G0xx_HAL_Driver/Src/stm32g0xx_hal_rcc.c ****         tickstart = HAL_GetTick();
 366:Drivers/STM32G0xx_HAL_Driver/Src/stm32g0xx_hal_rcc.c **** 
 367:Drivers/STM32G0xx_HAL_Driver/Src/stm32g0xx_hal_rcc.c ****         /* Wait till HSE is disabled */
 368:Drivers/STM32G0xx_HAL_Driver/Src/stm32g0xx_hal_rcc.c ****         while (READ_BIT(RCC->CR, RCC_CR_HSERDY) != 0U)
 369:Drivers/STM32G0xx_HAL_Driver/Src/stm32g0xx_hal_rcc.c ****         {
 370:Drivers/STM32G0xx_HAL_Driver/Src/stm32g0xx_hal_rcc.c ****           if ((HAL_GetTick() - tickstart) > HSE_TIMEOUT_VALUE)
 371:Drivers/STM32G0xx_HAL_Driver/Src/stm32g0xx_hal_rcc.c ****           {
 372:Drivers/STM32G0xx_HAL_Driver/Src/stm32g0xx_hal_rcc.c ****             return HAL_TIMEOUT;
 373:Drivers/STM32G0xx_HAL_Driver/Src/stm32g0xx_hal_rcc.c ****           }
 374:Drivers/STM32G0xx_HAL_Driver/Src/stm32g0xx_hal_rcc.c ****         }
 375:Drivers/STM32G0xx_HAL_Driver/Src/stm32g0xx_hal_rcc.c ****       }
 376:Drivers/STM32G0xx_HAL_Driver/Src/stm32g0xx_hal_rcc.c ****     }
 377:Drivers/STM32G0xx_HAL_Driver/Src/stm32g0xx_hal_rcc.c ****   }
 378:Drivers/STM32G0xx_HAL_Driver/Src/stm32g0xx_hal_rcc.c ****   /*----------------------------- HSI Configuration --------------------------*/
 379:Drivers/STM32G0xx_HAL_Driver/Src/stm32g0xx_hal_rcc.c ****   if (((RCC_OscInitStruct->OscillatorType) & RCC_OSCILLATORTYPE_HSI) == RCC_OSCILLATORTYPE_HSI)
 356              		.loc 1 379 3 is_stmt 1 view .LVU108
 357              		.loc 1 379 6 is_stmt 0 view .LVU109
 358 0084 2368     		ldr	r3, [r4]
 359 0086 9B07     		lsls	r3, r3, #30
 360 0088 31D5     		bpl	.L31
 380:Drivers/STM32G0xx_HAL_Driver/Src/stm32g0xx_hal_rcc.c ****   {
 381:Drivers/STM32G0xx_HAL_Driver/Src/stm32g0xx_hal_rcc.c ****     /* Check the parameters */
 382:Drivers/STM32G0xx_HAL_Driver/Src/stm32g0xx_hal_rcc.c ****     assert_param(IS_RCC_HSI(RCC_OscInitStruct->HSIState));
 361              		.loc 1 382 5 is_stmt 1 view .LVU110
 383:Drivers/STM32G0xx_HAL_Driver/Src/stm32g0xx_hal_rcc.c ****     assert_param(IS_RCC_HSI_CALIBRATION_VALUE(RCC_OscInitStruct->HSICalibrationValue));
 362              		.loc 1 383 5 view .LVU111
 384:Drivers/STM32G0xx_HAL_Driver/Src/stm32g0xx_hal_rcc.c ****     assert_param(IS_RCC_HSIDIV(RCC_OscInitStruct->HSIDiv));
 363              		.loc 1 384 5 view .LVU112
 385:Drivers/STM32G0xx_HAL_Driver/Src/stm32g0xx_hal_rcc.c **** 
 386:Drivers/STM32G0xx_HAL_Driver/Src/stm32g0xx_hal_rcc.c ****     /* Check if HSI16 is used as system clock or as PLL source when PLL is selected as system clock
 387:Drivers/STM32G0xx_HAL_Driver/Src/stm32g0xx_hal_rcc.c ****     temp_sysclksrc = __HAL_RCC_GET_SYSCLK_SOURCE();
 364              		.loc 1 387 5 view .LVU113
 365              		.loc 1 387 22 is_stmt 0 view .LVU114
 366 008a A34A     		ldr	r2, .L116
ARM GAS  C:\Users\tugru\AppData\Local\Temp\ccZeWSML.s 			page 15


 367 008c 9368     		ldr	r3, [r2, #8]
 368              		.loc 1 387 20 view .LVU115
 369 008e 3821     		movs	r1, #56
 370 0090 0B40     		ands	r3, r1
 371              	.LVL26:
 388:Drivers/STM32G0xx_HAL_Driver/Src/stm32g0xx_hal_rcc.c ****     temp_pllckcfg = __HAL_RCC_GET_PLL_OSCSOURCE();
 372              		.loc 1 388 5 is_stmt 1 view .LVU116
 373              		.loc 1 388 21 is_stmt 0 view .LVU117
 374 0092 D168     		ldr	r1, [r2, #12]
 375              		.loc 1 388 19 view .LVU118
 376 0094 0322     		movs	r2, #3
 377 0096 0A40     		ands	r2, r1
 378              	.LVL27:
 389:Drivers/STM32G0xx_HAL_Driver/Src/stm32g0xx_hal_rcc.c ****     if (((temp_sysclksrc == RCC_SYSCLKSOURCE_STATUS_PLLCLK) && (temp_pllckcfg == RCC_PLLSOURCE_HSI)
 379              		.loc 1 389 5 is_stmt 1 view .LVU119
 380              		.loc 1 389 8 is_stmt 0 view .LVU120
 381 0098 102B     		cmp	r3, #16
 382 009a 6AD0     		beq	.L102
 383              	.L32:
 390:Drivers/STM32G0xx_HAL_Driver/Src/stm32g0xx_hal_rcc.c ****         || (temp_sysclksrc == RCC_SYSCLKSOURCE_STATUS_HSI))
 384              		.loc 1 390 9 view .LVU121
 385 009c 002B     		cmp	r3, #0
 386 009e 6BD1     		bne	.L34
 387              	.L33:
 391:Drivers/STM32G0xx_HAL_Driver/Src/stm32g0xx_hal_rcc.c ****     {
 392:Drivers/STM32G0xx_HAL_Driver/Src/stm32g0xx_hal_rcc.c ****       /* When HSI is used as system clock or as PLL input clock it can not be disabled */
 393:Drivers/STM32G0xx_HAL_Driver/Src/stm32g0xx_hal_rcc.c ****       if ((READ_BIT(RCC->CR, RCC_CR_HSIRDY) != 0U) && (RCC_OscInitStruct->HSIState == RCC_HSI_OFF))
 388              		.loc 1 393 7 is_stmt 1 view .LVU122
 389              		.loc 1 393 12 is_stmt 0 view .LVU123
 390 00a0 9D4A     		ldr	r2, .L116
 391              	.LVL28:
 392              		.loc 1 393 12 view .LVU124
 393 00a2 1268     		ldr	r2, [r2]
 394              		.loc 1 393 10 view .LVU125
 395 00a4 5205     		lsls	r2, r2, #21
 396 00a6 03D5     		bpl	.L35
 397              		.loc 1 393 52 discriminator 1 view .LVU126
 398 00a8 E268     		ldr	r2, [r4, #12]
 399 00aa 002A     		cmp	r2, #0
 400 00ac 00D1     		bne	.LCB334
 401 00ae DBE1     		b	.L76	@long jump
 402              	.LCB334:
 403              	.L35:
 394:Drivers/STM32G0xx_HAL_Driver/Src/stm32g0xx_hal_rcc.c ****       {
 395:Drivers/STM32G0xx_HAL_Driver/Src/stm32g0xx_hal_rcc.c ****         return HAL_ERROR;
 396:Drivers/STM32G0xx_HAL_Driver/Src/stm32g0xx_hal_rcc.c ****       }
 397:Drivers/STM32G0xx_HAL_Driver/Src/stm32g0xx_hal_rcc.c ****       /* Otherwise, just the calibration is allowed */
 398:Drivers/STM32G0xx_HAL_Driver/Src/stm32g0xx_hal_rcc.c ****       else
 399:Drivers/STM32G0xx_HAL_Driver/Src/stm32g0xx_hal_rcc.c ****       {
 400:Drivers/STM32G0xx_HAL_Driver/Src/stm32g0xx_hal_rcc.c ****         /* Adjusts the Internal High Speed oscillator (HSI) calibration value.*/
 401:Drivers/STM32G0xx_HAL_Driver/Src/stm32g0xx_hal_rcc.c ****         __HAL_RCC_HSI_CALIBRATIONVALUE_ADJUST(RCC_OscInitStruct->HSICalibrationValue);
 404              		.loc 1 401 9 is_stmt 1 view .LVU127
 405 00b0 9948     		ldr	r0, .L116
 406 00b2 4268     		ldr	r2, [r0, #4]
 407 00b4 9B49     		ldr	r1, .L116+12
 408              	.LVL29:
 409              		.loc 1 401 9 is_stmt 0 view .LVU128
ARM GAS  C:\Users\tugru\AppData\Local\Temp\ccZeWSML.s 			page 16


 410 00b6 0A40     		ands	r2, r1
 411 00b8 6169     		ldr	r1, [r4, #20]
 412 00ba 0902     		lsls	r1, r1, #8
 413 00bc 0A43     		orrs	r2, r1
 414 00be 4260     		str	r2, [r0, #4]
 402:Drivers/STM32G0xx_HAL_Driver/Src/stm32g0xx_hal_rcc.c **** 
 403:Drivers/STM32G0xx_HAL_Driver/Src/stm32g0xx_hal_rcc.c ****         if (temp_sysclksrc == RCC_SYSCLKSOURCE_STATUS_HSI)
 415              		.loc 1 403 9 is_stmt 1 view .LVU129
 416              		.loc 1 403 12 is_stmt 0 view .LVU130
 417 00c0 002B     		cmp	r3, #0
 418 00c2 0DD1     		bne	.L36
 404:Drivers/STM32G0xx_HAL_Driver/Src/stm32g0xx_hal_rcc.c ****         {
 405:Drivers/STM32G0xx_HAL_Driver/Src/stm32g0xx_hal_rcc.c ****           /* Adjust the HSI16 division factor */
 406:Drivers/STM32G0xx_HAL_Driver/Src/stm32g0xx_hal_rcc.c ****           __HAL_RCC_HSI_CONFIG(RCC_OscInitStruct->HSIDiv);
 419              		.loc 1 406 11 is_stmt 1 view .LVU131
 420 00c4 0368     		ldr	r3, [r0]
 421              	.LVL30:
 422              		.loc 1 406 11 is_stmt 0 view .LVU132
 423 00c6 9849     		ldr	r1, .L116+16
 424 00c8 0B40     		ands	r3, r1
 425 00ca 2169     		ldr	r1, [r4, #16]
 426 00cc 0B43     		orrs	r3, r1
 427 00ce 0360     		str	r3, [r0]
 407:Drivers/STM32G0xx_HAL_Driver/Src/stm32g0xx_hal_rcc.c **** 
 408:Drivers/STM32G0xx_HAL_Driver/Src/stm32g0xx_hal_rcc.c ****           /* Update the SystemCoreClock global variable with HSISYS value  */
 409:Drivers/STM32G0xx_HAL_Driver/Src/stm32g0xx_hal_rcc.c ****           SystemCoreClock = (HSI_VALUE / (1UL << ((READ_BIT(RCC->CR, RCC_CR_HSIDIV)) >> RCC_CR_HSID
 428              		.loc 1 409 11 is_stmt 1 view .LVU133
 429              		.loc 1 409 52 is_stmt 0 view .LVU134
 430 00d0 0368     		ldr	r3, [r0]
 431              		.loc 1 409 86 view .LVU135
 432 00d2 DB0A     		lsrs	r3, r3, #11
 433 00d4 0722     		movs	r2, #7
 434 00d6 1A40     		ands	r2, r3
 435              		.loc 1 409 40 view .LVU136
 436 00d8 944B     		ldr	r3, .L116+20
 437 00da D340     		lsrs	r3, r3, r2
 438              		.loc 1 409 27 view .LVU137
 439 00dc 944A     		ldr	r2, .L116+24
 440 00de 1360     		str	r3, [r2]
 441              	.L36:
 410:Drivers/STM32G0xx_HAL_Driver/Src/stm32g0xx_hal_rcc.c ****         }
 411:Drivers/STM32G0xx_HAL_Driver/Src/stm32g0xx_hal_rcc.c **** 
 412:Drivers/STM32G0xx_HAL_Driver/Src/stm32g0xx_hal_rcc.c ****         /* Adapt Systick interrupt period */
 413:Drivers/STM32G0xx_HAL_Driver/Src/stm32g0xx_hal_rcc.c ****         if (HAL_InitTick(uwTickPrio) != HAL_OK)
 442              		.loc 1 413 9 is_stmt 1 view .LVU138
 443              		.loc 1 413 13 is_stmt 0 view .LVU139
 444 00e0 944B     		ldr	r3, .L116+28
 445 00e2 1868     		ldr	r0, [r3]
 446 00e4 FFF7FEFF 		bl	HAL_InitTick
 447              	.LVL31:
 448              		.loc 1 413 12 view .LVU140
 449 00e8 0028     		cmp	r0, #0
 450 00ea 00D0     		beq	.LCB377
 451 00ec BEE1     		b	.L103	@long jump
 452              	.LCB377:
 453              	.L31:
 414:Drivers/STM32G0xx_HAL_Driver/Src/stm32g0xx_hal_rcc.c ****         {
ARM GAS  C:\Users\tugru\AppData\Local\Temp\ccZeWSML.s 			page 17


 415:Drivers/STM32G0xx_HAL_Driver/Src/stm32g0xx_hal_rcc.c ****           return HAL_ERROR;
 416:Drivers/STM32G0xx_HAL_Driver/Src/stm32g0xx_hal_rcc.c ****         }
 417:Drivers/STM32G0xx_HAL_Driver/Src/stm32g0xx_hal_rcc.c ****       }
 418:Drivers/STM32G0xx_HAL_Driver/Src/stm32g0xx_hal_rcc.c ****     }
 419:Drivers/STM32G0xx_HAL_Driver/Src/stm32g0xx_hal_rcc.c ****     else
 420:Drivers/STM32G0xx_HAL_Driver/Src/stm32g0xx_hal_rcc.c ****     {
 421:Drivers/STM32G0xx_HAL_Driver/Src/stm32g0xx_hal_rcc.c ****       /* Check the HSI State */
 422:Drivers/STM32G0xx_HAL_Driver/Src/stm32g0xx_hal_rcc.c ****       if (RCC_OscInitStruct->HSIState != RCC_HSI_OFF)
 423:Drivers/STM32G0xx_HAL_Driver/Src/stm32g0xx_hal_rcc.c ****       {
 424:Drivers/STM32G0xx_HAL_Driver/Src/stm32g0xx_hal_rcc.c ****         /* Configure the HSI16 division factor */
 425:Drivers/STM32G0xx_HAL_Driver/Src/stm32g0xx_hal_rcc.c ****         __HAL_RCC_HSI_CONFIG(RCC_OscInitStruct->HSIDiv);
 426:Drivers/STM32G0xx_HAL_Driver/Src/stm32g0xx_hal_rcc.c **** 
 427:Drivers/STM32G0xx_HAL_Driver/Src/stm32g0xx_hal_rcc.c ****         /* Enable the Internal High Speed oscillator (HSI16). */
 428:Drivers/STM32G0xx_HAL_Driver/Src/stm32g0xx_hal_rcc.c ****         __HAL_RCC_HSI_ENABLE();
 429:Drivers/STM32G0xx_HAL_Driver/Src/stm32g0xx_hal_rcc.c **** 
 430:Drivers/STM32G0xx_HAL_Driver/Src/stm32g0xx_hal_rcc.c ****         /* Get Start Tick*/
 431:Drivers/STM32G0xx_HAL_Driver/Src/stm32g0xx_hal_rcc.c ****         tickstart = HAL_GetTick();
 432:Drivers/STM32G0xx_HAL_Driver/Src/stm32g0xx_hal_rcc.c **** 
 433:Drivers/STM32G0xx_HAL_Driver/Src/stm32g0xx_hal_rcc.c ****         /* Wait till HSI is ready */
 434:Drivers/STM32G0xx_HAL_Driver/Src/stm32g0xx_hal_rcc.c ****         while (READ_BIT(RCC->CR, RCC_CR_HSIRDY) == 0U)
 435:Drivers/STM32G0xx_HAL_Driver/Src/stm32g0xx_hal_rcc.c ****         {
 436:Drivers/STM32G0xx_HAL_Driver/Src/stm32g0xx_hal_rcc.c ****           if ((HAL_GetTick() - tickstart) > HSI_TIMEOUT_VALUE)
 437:Drivers/STM32G0xx_HAL_Driver/Src/stm32g0xx_hal_rcc.c ****           {
 438:Drivers/STM32G0xx_HAL_Driver/Src/stm32g0xx_hal_rcc.c ****             return HAL_TIMEOUT;
 439:Drivers/STM32G0xx_HAL_Driver/Src/stm32g0xx_hal_rcc.c ****           }
 440:Drivers/STM32G0xx_HAL_Driver/Src/stm32g0xx_hal_rcc.c ****         }
 441:Drivers/STM32G0xx_HAL_Driver/Src/stm32g0xx_hal_rcc.c **** 
 442:Drivers/STM32G0xx_HAL_Driver/Src/stm32g0xx_hal_rcc.c ****         /* Adjusts the Internal High Speed oscillator (HSI) calibration value.*/
 443:Drivers/STM32G0xx_HAL_Driver/Src/stm32g0xx_hal_rcc.c ****         __HAL_RCC_HSI_CALIBRATIONVALUE_ADJUST(RCC_OscInitStruct->HSICalibrationValue);
 444:Drivers/STM32G0xx_HAL_Driver/Src/stm32g0xx_hal_rcc.c ****       }
 445:Drivers/STM32G0xx_HAL_Driver/Src/stm32g0xx_hal_rcc.c ****       else
 446:Drivers/STM32G0xx_HAL_Driver/Src/stm32g0xx_hal_rcc.c ****       {
 447:Drivers/STM32G0xx_HAL_Driver/Src/stm32g0xx_hal_rcc.c ****         /* Disable the Internal High Speed oscillator (HSI16). */
 448:Drivers/STM32G0xx_HAL_Driver/Src/stm32g0xx_hal_rcc.c ****         __HAL_RCC_HSI_DISABLE();
 449:Drivers/STM32G0xx_HAL_Driver/Src/stm32g0xx_hal_rcc.c **** 
 450:Drivers/STM32G0xx_HAL_Driver/Src/stm32g0xx_hal_rcc.c ****         /* Get Start Tick*/
 451:Drivers/STM32G0xx_HAL_Driver/Src/stm32g0xx_hal_rcc.c ****         tickstart = HAL_GetTick();
 452:Drivers/STM32G0xx_HAL_Driver/Src/stm32g0xx_hal_rcc.c **** 
 453:Drivers/STM32G0xx_HAL_Driver/Src/stm32g0xx_hal_rcc.c ****         /* Wait till HSI is disabled */
 454:Drivers/STM32G0xx_HAL_Driver/Src/stm32g0xx_hal_rcc.c ****         while (READ_BIT(RCC->CR, RCC_CR_HSIRDY) != 0U)
 455:Drivers/STM32G0xx_HAL_Driver/Src/stm32g0xx_hal_rcc.c ****         {
 456:Drivers/STM32G0xx_HAL_Driver/Src/stm32g0xx_hal_rcc.c ****           if ((HAL_GetTick() - tickstart) > HSI_TIMEOUT_VALUE)
 457:Drivers/STM32G0xx_HAL_Driver/Src/stm32g0xx_hal_rcc.c ****           {
 458:Drivers/STM32G0xx_HAL_Driver/Src/stm32g0xx_hal_rcc.c ****             return HAL_TIMEOUT;
 459:Drivers/STM32G0xx_HAL_Driver/Src/stm32g0xx_hal_rcc.c ****           }
 460:Drivers/STM32G0xx_HAL_Driver/Src/stm32g0xx_hal_rcc.c ****         }
 461:Drivers/STM32G0xx_HAL_Driver/Src/stm32g0xx_hal_rcc.c ****       }
 462:Drivers/STM32G0xx_HAL_Driver/Src/stm32g0xx_hal_rcc.c ****     }
 463:Drivers/STM32G0xx_HAL_Driver/Src/stm32g0xx_hal_rcc.c ****   }
 464:Drivers/STM32G0xx_HAL_Driver/Src/stm32g0xx_hal_rcc.c ****   /*------------------------------ LSI Configuration -------------------------*/
 465:Drivers/STM32G0xx_HAL_Driver/Src/stm32g0xx_hal_rcc.c ****   if (((RCC_OscInitStruct->OscillatorType) & RCC_OSCILLATORTYPE_LSI) == RCC_OSCILLATORTYPE_LSI)
 454              		.loc 1 465 3 is_stmt 1 view .LVU141
 455              		.loc 1 465 6 is_stmt 0 view .LVU142
 456 00ee 2368     		ldr	r3, [r4]
 457 00f0 1B07     		lsls	r3, r3, #28
 458 00f2 00D4     		bmi	.LCB388
 459 00f4 81E0     		b	.L42	@long jump
ARM GAS  C:\Users\tugru\AppData\Local\Temp\ccZeWSML.s 			page 18


 460              	.LCB388:
 466:Drivers/STM32G0xx_HAL_Driver/Src/stm32g0xx_hal_rcc.c ****   {
 467:Drivers/STM32G0xx_HAL_Driver/Src/stm32g0xx_hal_rcc.c ****     /* Check the parameters */
 468:Drivers/STM32G0xx_HAL_Driver/Src/stm32g0xx_hal_rcc.c ****     assert_param(IS_RCC_LSI(RCC_OscInitStruct->LSIState));
 461              		.loc 1 468 5 is_stmt 1 view .LVU143
 469:Drivers/STM32G0xx_HAL_Driver/Src/stm32g0xx_hal_rcc.c **** 
 470:Drivers/STM32G0xx_HAL_Driver/Src/stm32g0xx_hal_rcc.c ****     /* Check if LSI is used as system clock */
 471:Drivers/STM32G0xx_HAL_Driver/Src/stm32g0xx_hal_rcc.c ****     if (__HAL_RCC_GET_SYSCLK_SOURCE() == RCC_SYSCLKSOURCE_STATUS_LSI)
 462              		.loc 1 471 5 view .LVU144
 463              		.loc 1 471 9 is_stmt 0 view .LVU145
 464 00f6 884B     		ldr	r3, .L116
 465 00f8 9A68     		ldr	r2, [r3, #8]
 466 00fa 3823     		movs	r3, #56
 467 00fc 1340     		ands	r3, r2
 468              		.loc 1 471 8 view .LVU146
 469 00fe 182B     		cmp	r3, #24
 470 0100 73D0     		beq	.L104
 472:Drivers/STM32G0xx_HAL_Driver/Src/stm32g0xx_hal_rcc.c ****     {
 473:Drivers/STM32G0xx_HAL_Driver/Src/stm32g0xx_hal_rcc.c ****       /* When LSI is used as system clock it will not be disabled */
 474:Drivers/STM32G0xx_HAL_Driver/Src/stm32g0xx_hal_rcc.c ****       if ((((RCC->CSR) & RCC_CSR_LSIRDY) != 0U) && (RCC_OscInitStruct->LSIState == RCC_LSI_OFF))
 475:Drivers/STM32G0xx_HAL_Driver/Src/stm32g0xx_hal_rcc.c ****       {
 476:Drivers/STM32G0xx_HAL_Driver/Src/stm32g0xx_hal_rcc.c ****         return HAL_ERROR;
 477:Drivers/STM32G0xx_HAL_Driver/Src/stm32g0xx_hal_rcc.c ****       }
 478:Drivers/STM32G0xx_HAL_Driver/Src/stm32g0xx_hal_rcc.c ****     }
 479:Drivers/STM32G0xx_HAL_Driver/Src/stm32g0xx_hal_rcc.c ****     else
 480:Drivers/STM32G0xx_HAL_Driver/Src/stm32g0xx_hal_rcc.c ****     {
 481:Drivers/STM32G0xx_HAL_Driver/Src/stm32g0xx_hal_rcc.c ****       /* Check the LSI State */
 482:Drivers/STM32G0xx_HAL_Driver/Src/stm32g0xx_hal_rcc.c ****       if (RCC_OscInitStruct->LSIState != RCC_LSI_OFF)
 471              		.loc 1 482 7 is_stmt 1 view .LVU147
 472              		.loc 1 482 10 is_stmt 0 view .LVU148
 473 0102 A369     		ldr	r3, [r4, #24]
 474 0104 002B     		cmp	r3, #0
 475 0106 00D1     		bne	.LCB401
 476 0108 B4E0     		b	.L44	@long jump
 477              	.LCB401:
 483:Drivers/STM32G0xx_HAL_Driver/Src/stm32g0xx_hal_rcc.c ****       {
 484:Drivers/STM32G0xx_HAL_Driver/Src/stm32g0xx_hal_rcc.c ****         /* Enable the Internal Low Speed oscillator (LSI). */
 485:Drivers/STM32G0xx_HAL_Driver/Src/stm32g0xx_hal_rcc.c ****         __HAL_RCC_LSI_ENABLE();
 478              		.loc 1 485 9 is_stmt 1 view .LVU149
 479 010a 834A     		ldr	r2, .L116
 480 010c 136E     		ldr	r3, [r2, #96]
 481 010e 0121     		movs	r1, #1
 482 0110 0B43     		orrs	r3, r1
 483 0112 1366     		str	r3, [r2, #96]
 486:Drivers/STM32G0xx_HAL_Driver/Src/stm32g0xx_hal_rcc.c **** 
 487:Drivers/STM32G0xx_HAL_Driver/Src/stm32g0xx_hal_rcc.c ****         /* Get Start Tick*/
 488:Drivers/STM32G0xx_HAL_Driver/Src/stm32g0xx_hal_rcc.c ****         tickstart = HAL_GetTick();
 484              		.loc 1 488 9 view .LVU150
 485              		.loc 1 488 21 is_stmt 0 view .LVU151
 486 0114 FFF7FEFF 		bl	HAL_GetTick
 487              	.LVL32:
 488 0118 0500     		movs	r5, r0
 489              	.LVL33:
 489:Drivers/STM32G0xx_HAL_Driver/Src/stm32g0xx_hal_rcc.c **** 
 490:Drivers/STM32G0xx_HAL_Driver/Src/stm32g0xx_hal_rcc.c ****         /* Wait till LSI is ready */
 491:Drivers/STM32G0xx_HAL_Driver/Src/stm32g0xx_hal_rcc.c ****         while (READ_BIT(RCC->CSR, RCC_CSR_LSIRDY) == 0U)
 490              		.loc 1 491 9 is_stmt 1 view .LVU152
ARM GAS  C:\Users\tugru\AppData\Local\Temp\ccZeWSML.s 			page 19


 491              	.L45:
 492              		.loc 1 491 15 view .LVU153
 493              		.loc 1 491 16 is_stmt 0 view .LVU154
 494 011a 7F4B     		ldr	r3, .L116
 495 011c 1B6E     		ldr	r3, [r3, #96]
 496              		.loc 1 491 15 view .LVU155
 497 011e 9B07     		lsls	r3, r3, #30
 498 0120 6BD4     		bmi	.L42
 492:Drivers/STM32G0xx_HAL_Driver/Src/stm32g0xx_hal_rcc.c ****         {
 493:Drivers/STM32G0xx_HAL_Driver/Src/stm32g0xx_hal_rcc.c ****           if ((HAL_GetTick() - tickstart) > LSI_TIMEOUT_VALUE)
 499              		.loc 1 493 11 is_stmt 1 view .LVU156
 500              		.loc 1 493 16 is_stmt 0 view .LVU157
 501 0122 FFF7FEFF 		bl	HAL_GetTick
 502              	.LVL34:
 503              		.loc 1 493 30 view .LVU158
 504 0126 401B     		subs	r0, r0, r5
 505              		.loc 1 493 14 view .LVU159
 506 0128 0228     		cmp	r0, #2
 507 012a F6D9     		bls	.L45
 494:Drivers/STM32G0xx_HAL_Driver/Src/stm32g0xx_hal_rcc.c ****           {
 495:Drivers/STM32G0xx_HAL_Driver/Src/stm32g0xx_hal_rcc.c ****             return HAL_TIMEOUT;
 508              		.loc 1 495 20 view .LVU160
 509 012c 0320     		movs	r0, #3
 510 012e 97E1     		b	.L18
 511              	.LVL35:
 512              	.L99:
 345:Drivers/STM32G0xx_HAL_Driver/Src/stm32g0xx_hal_rcc.c **** 
 513              		.loc 1 345 7 is_stmt 1 discriminator 1 view .LVU161
 514 0130 794A     		ldr	r2, .L116
 515 0132 1168     		ldr	r1, [r2]
 516              	.LVL36:
 345:Drivers/STM32G0xx_HAL_Driver/Src/stm32g0xx_hal_rcc.c **** 
 517              		.loc 1 345 7 is_stmt 0 discriminator 1 view .LVU162
 518 0134 8023     		movs	r3, #128
 519 0136 5B02     		lsls	r3, r3, #9
 520 0138 0B43     		orrs	r3, r1
 521 013a 1360     		str	r3, [r2]
 522 013c 86E7     		b	.L24
 523              	.LVL37:
 524              	.L100:
 345:Drivers/STM32G0xx_HAL_Driver/Src/stm32g0xx_hal_rcc.c **** 
 525              		.loc 1 345 7 is_stmt 1 discriminator 4 view .LVU163
 526 013e 764B     		ldr	r3, .L116
 527 0140 1968     		ldr	r1, [r3]
 528              	.LVL38:
 345:Drivers/STM32G0xx_HAL_Driver/Src/stm32g0xx_hal_rcc.c **** 
 529              		.loc 1 345 7 is_stmt 0 discriminator 4 view .LVU164
 530 0142 8022     		movs	r2, #128
 531 0144 D202     		lsls	r2, r2, #11
 532 0146 0A43     		orrs	r2, r1
 533 0148 1A60     		str	r2, [r3]
 345:Drivers/STM32G0xx_HAL_Driver/Src/stm32g0xx_hal_rcc.c **** 
 534              		.loc 1 345 7 is_stmt 1 discriminator 4 view .LVU165
 535 014a 1968     		ldr	r1, [r3]
 536 014c 8022     		movs	r2, #128
 537 014e 5202     		lsls	r2, r2, #9
 538 0150 0A43     		orrs	r2, r1
ARM GAS  C:\Users\tugru\AppData\Local\Temp\ccZeWSML.s 			page 20


 539 0152 1A60     		str	r2, [r3]
 540 0154 7AE7     		b	.L24
 541              	.L26:
 365:Drivers/STM32G0xx_HAL_Driver/Src/stm32g0xx_hal_rcc.c **** 
 542              		.loc 1 365 9 view .LVU166
 365:Drivers/STM32G0xx_HAL_Driver/Src/stm32g0xx_hal_rcc.c **** 
 543              		.loc 1 365 21 is_stmt 0 view .LVU167
 544 0156 FFF7FEFF 		bl	HAL_GetTick
 545              	.LVL39:
 365:Drivers/STM32G0xx_HAL_Driver/Src/stm32g0xx_hal_rcc.c **** 
 546              		.loc 1 365 21 view .LVU168
 547 015a 0500     		movs	r5, r0
 548              	.LVL40:
 368:Drivers/STM32G0xx_HAL_Driver/Src/stm32g0xx_hal_rcc.c ****         {
 549              		.loc 1 368 9 is_stmt 1 view .LVU169
 550              	.L29:
 368:Drivers/STM32G0xx_HAL_Driver/Src/stm32g0xx_hal_rcc.c ****         {
 551              		.loc 1 368 15 view .LVU170
 368:Drivers/STM32G0xx_HAL_Driver/Src/stm32g0xx_hal_rcc.c ****         {
 552              		.loc 1 368 16 is_stmt 0 view .LVU171
 553 015c 6E4B     		ldr	r3, .L116
 554 015e 1B68     		ldr	r3, [r3]
 368:Drivers/STM32G0xx_HAL_Driver/Src/stm32g0xx_hal_rcc.c ****         {
 555              		.loc 1 368 15 view .LVU172
 556 0160 9B03     		lsls	r3, r3, #14
 557 0162 8FD5     		bpl	.L19
 370:Drivers/STM32G0xx_HAL_Driver/Src/stm32g0xx_hal_rcc.c ****           {
 558              		.loc 1 370 11 is_stmt 1 view .LVU173
 370:Drivers/STM32G0xx_HAL_Driver/Src/stm32g0xx_hal_rcc.c ****           {
 559              		.loc 1 370 16 is_stmt 0 view .LVU174
 560 0164 FFF7FEFF 		bl	HAL_GetTick
 561              	.LVL41:
 370:Drivers/STM32G0xx_HAL_Driver/Src/stm32g0xx_hal_rcc.c ****           {
 562              		.loc 1 370 30 view .LVU175
 563 0168 401B     		subs	r0, r0, r5
 370:Drivers/STM32G0xx_HAL_Driver/Src/stm32g0xx_hal_rcc.c ****           {
 564              		.loc 1 370 14 view .LVU176
 565 016a 6428     		cmp	r0, #100
 566 016c F6D9     		bls	.L29
 372:Drivers/STM32G0xx_HAL_Driver/Src/stm32g0xx_hal_rcc.c ****           }
 567              		.loc 1 372 20 view .LVU177
 568 016e 0320     		movs	r0, #3
 372:Drivers/STM32G0xx_HAL_Driver/Src/stm32g0xx_hal_rcc.c ****           }
 569              		.loc 1 372 20 view .LVU178
 570 0170 76E1     		b	.L18
 571              	.LVL42:
 572              	.L102:
 389:Drivers/STM32G0xx_HAL_Driver/Src/stm32g0xx_hal_rcc.c ****         || (temp_sysclksrc == RCC_SYSCLKSOURCE_STATUS_HSI))
 573              		.loc 1 389 61 discriminator 1 view .LVU179
 574 0172 022A     		cmp	r2, #2
 575 0174 92D1     		bne	.L32
 576 0176 93E7     		b	.L33
 577              	.L34:
 422:Drivers/STM32G0xx_HAL_Driver/Src/stm32g0xx_hal_rcc.c ****       {
 578              		.loc 1 422 7 is_stmt 1 view .LVU180
 422:Drivers/STM32G0xx_HAL_Driver/Src/stm32g0xx_hal_rcc.c ****       {
 579              		.loc 1 422 10 is_stmt 0 view .LVU181
ARM GAS  C:\Users\tugru\AppData\Local\Temp\ccZeWSML.s 			page 21


 580 0178 E368     		ldr	r3, [r4, #12]
 581              	.LVL43:
 422:Drivers/STM32G0xx_HAL_Driver/Src/stm32g0xx_hal_rcc.c ****       {
 582              		.loc 1 422 10 view .LVU182
 583 017a 002B     		cmp	r3, #0
 584 017c 22D0     		beq	.L37
 425:Drivers/STM32G0xx_HAL_Driver/Src/stm32g0xx_hal_rcc.c **** 
 585              		.loc 1 425 9 is_stmt 1 view .LVU183
 586 017e 664A     		ldr	r2, .L116
 587              	.LVL44:
 425:Drivers/STM32G0xx_HAL_Driver/Src/stm32g0xx_hal_rcc.c **** 
 588              		.loc 1 425 9 is_stmt 0 view .LVU184
 589 0180 1368     		ldr	r3, [r2]
 590 0182 6949     		ldr	r1, .L116+16
 591              	.LVL45:
 425:Drivers/STM32G0xx_HAL_Driver/Src/stm32g0xx_hal_rcc.c **** 
 592              		.loc 1 425 9 view .LVU185
 593 0184 0B40     		ands	r3, r1
 594 0186 2169     		ldr	r1, [r4, #16]
 595 0188 0B43     		orrs	r3, r1
 596 018a 1360     		str	r3, [r2]
 428:Drivers/STM32G0xx_HAL_Driver/Src/stm32g0xx_hal_rcc.c **** 
 597              		.loc 1 428 9 is_stmt 1 view .LVU186
 598 018c 1168     		ldr	r1, [r2]
 599 018e 8023     		movs	r3, #128
 600 0190 5B00     		lsls	r3, r3, #1
 601 0192 0B43     		orrs	r3, r1
 602 0194 1360     		str	r3, [r2]
 431:Drivers/STM32G0xx_HAL_Driver/Src/stm32g0xx_hal_rcc.c **** 
 603              		.loc 1 431 9 view .LVU187
 431:Drivers/STM32G0xx_HAL_Driver/Src/stm32g0xx_hal_rcc.c **** 
 604              		.loc 1 431 21 is_stmt 0 view .LVU188
 605 0196 FFF7FEFF 		bl	HAL_GetTick
 606              	.LVL46:
 607 019a 0500     		movs	r5, r0
 608              	.LVL47:
 434:Drivers/STM32G0xx_HAL_Driver/Src/stm32g0xx_hal_rcc.c ****         {
 609              		.loc 1 434 9 is_stmt 1 view .LVU189
 610              	.L38:
 434:Drivers/STM32G0xx_HAL_Driver/Src/stm32g0xx_hal_rcc.c ****         {
 611              		.loc 1 434 15 view .LVU190
 434:Drivers/STM32G0xx_HAL_Driver/Src/stm32g0xx_hal_rcc.c ****         {
 612              		.loc 1 434 16 is_stmt 0 view .LVU191
 613 019c 5E4B     		ldr	r3, .L116
 614 019e 1B68     		ldr	r3, [r3]
 434:Drivers/STM32G0xx_HAL_Driver/Src/stm32g0xx_hal_rcc.c ****         {
 615              		.loc 1 434 15 view .LVU192
 616 01a0 5B05     		lsls	r3, r3, #21
 617 01a2 06D4     		bmi	.L105
 436:Drivers/STM32G0xx_HAL_Driver/Src/stm32g0xx_hal_rcc.c ****           {
 618              		.loc 1 436 11 is_stmt 1 view .LVU193
 436:Drivers/STM32G0xx_HAL_Driver/Src/stm32g0xx_hal_rcc.c ****           {
 619              		.loc 1 436 16 is_stmt 0 view .LVU194
 620 01a4 FFF7FEFF 		bl	HAL_GetTick
 621              	.LVL48:
 436:Drivers/STM32G0xx_HAL_Driver/Src/stm32g0xx_hal_rcc.c ****           {
 622              		.loc 1 436 30 view .LVU195
ARM GAS  C:\Users\tugru\AppData\Local\Temp\ccZeWSML.s 			page 22


 623 01a8 401B     		subs	r0, r0, r5
 436:Drivers/STM32G0xx_HAL_Driver/Src/stm32g0xx_hal_rcc.c ****           {
 624              		.loc 1 436 14 view .LVU196
 625 01aa 0228     		cmp	r0, #2
 626 01ac F6D9     		bls	.L38
 438:Drivers/STM32G0xx_HAL_Driver/Src/stm32g0xx_hal_rcc.c ****           }
 627              		.loc 1 438 20 view .LVU197
 628 01ae 0320     		movs	r0, #3
 438:Drivers/STM32G0xx_HAL_Driver/Src/stm32g0xx_hal_rcc.c ****           }
 629              		.loc 1 438 20 view .LVU198
 630 01b0 56E1     		b	.L18
 631              	.L105:
 443:Drivers/STM32G0xx_HAL_Driver/Src/stm32g0xx_hal_rcc.c ****       }
 632              		.loc 1 443 9 is_stmt 1 view .LVU199
 633 01b2 5949     		ldr	r1, .L116
 634 01b4 4B68     		ldr	r3, [r1, #4]
 635 01b6 5B4A     		ldr	r2, .L116+12
 636 01b8 1340     		ands	r3, r2
 637 01ba 6269     		ldr	r2, [r4, #20]
 638 01bc 1202     		lsls	r2, r2, #8
 639 01be 1343     		orrs	r3, r2
 640 01c0 4B60     		str	r3, [r1, #4]
 641 01c2 94E7     		b	.L31
 642              	.LVL49:
 643              	.L37:
 448:Drivers/STM32G0xx_HAL_Driver/Src/stm32g0xx_hal_rcc.c **** 
 644              		.loc 1 448 9 view .LVU200
 645 01c4 544A     		ldr	r2, .L116
 646              	.LVL50:
 448:Drivers/STM32G0xx_HAL_Driver/Src/stm32g0xx_hal_rcc.c **** 
 647              		.loc 1 448 9 is_stmt 0 view .LVU201
 648 01c6 1368     		ldr	r3, [r2]
 649 01c8 5B49     		ldr	r1, .L116+32
 650              	.LVL51:
 448:Drivers/STM32G0xx_HAL_Driver/Src/stm32g0xx_hal_rcc.c **** 
 651              		.loc 1 448 9 view .LVU202
 652 01ca 0B40     		ands	r3, r1
 653 01cc 1360     		str	r3, [r2]
 451:Drivers/STM32G0xx_HAL_Driver/Src/stm32g0xx_hal_rcc.c **** 
 654              		.loc 1 451 9 is_stmt 1 view .LVU203
 451:Drivers/STM32G0xx_HAL_Driver/Src/stm32g0xx_hal_rcc.c **** 
 655              		.loc 1 451 21 is_stmt 0 view .LVU204
 656 01ce FFF7FEFF 		bl	HAL_GetTick
 657              	.LVL52:
 658 01d2 0500     		movs	r5, r0
 659              	.LVL53:
 454:Drivers/STM32G0xx_HAL_Driver/Src/stm32g0xx_hal_rcc.c ****         {
 660              		.loc 1 454 9 is_stmt 1 view .LVU205
 661              	.L40:
 454:Drivers/STM32G0xx_HAL_Driver/Src/stm32g0xx_hal_rcc.c ****         {
 662              		.loc 1 454 15 view .LVU206
 454:Drivers/STM32G0xx_HAL_Driver/Src/stm32g0xx_hal_rcc.c ****         {
 663              		.loc 1 454 16 is_stmt 0 view .LVU207
 664 01d4 504B     		ldr	r3, .L116
 665 01d6 1B68     		ldr	r3, [r3]
 454:Drivers/STM32G0xx_HAL_Driver/Src/stm32g0xx_hal_rcc.c ****         {
 666              		.loc 1 454 15 view .LVU208
ARM GAS  C:\Users\tugru\AppData\Local\Temp\ccZeWSML.s 			page 23


 667 01d8 5B05     		lsls	r3, r3, #21
 668 01da 88D5     		bpl	.L31
 456:Drivers/STM32G0xx_HAL_Driver/Src/stm32g0xx_hal_rcc.c ****           {
 669              		.loc 1 456 11 is_stmt 1 view .LVU209
 456:Drivers/STM32G0xx_HAL_Driver/Src/stm32g0xx_hal_rcc.c ****           {
 670              		.loc 1 456 16 is_stmt 0 view .LVU210
 671 01dc FFF7FEFF 		bl	HAL_GetTick
 672              	.LVL54:
 456:Drivers/STM32G0xx_HAL_Driver/Src/stm32g0xx_hal_rcc.c ****           {
 673              		.loc 1 456 30 view .LVU211
 674 01e0 401B     		subs	r0, r0, r5
 456:Drivers/STM32G0xx_HAL_Driver/Src/stm32g0xx_hal_rcc.c ****           {
 675              		.loc 1 456 14 view .LVU212
 676 01e2 0228     		cmp	r0, #2
 677 01e4 F6D9     		bls	.L40
 458:Drivers/STM32G0xx_HAL_Driver/Src/stm32g0xx_hal_rcc.c ****           }
 678              		.loc 1 458 20 view .LVU213
 679 01e6 0320     		movs	r0, #3
 458:Drivers/STM32G0xx_HAL_Driver/Src/stm32g0xx_hal_rcc.c ****           }
 680              		.loc 1 458 20 view .LVU214
 681 01e8 3AE1     		b	.L18
 682              	.LVL55:
 683              	.L104:
 474:Drivers/STM32G0xx_HAL_Driver/Src/stm32g0xx_hal_rcc.c ****       {
 684              		.loc 1 474 7 is_stmt 1 view .LVU215
 474:Drivers/STM32G0xx_HAL_Driver/Src/stm32g0xx_hal_rcc.c ****       {
 685              		.loc 1 474 17 is_stmt 0 view .LVU216
 686 01ea 4B4B     		ldr	r3, .L116
 687 01ec 1B6E     		ldr	r3, [r3, #96]
 474:Drivers/STM32G0xx_HAL_Driver/Src/stm32g0xx_hal_rcc.c ****       {
 688              		.loc 1 474 10 view .LVU217
 689 01ee 9B07     		lsls	r3, r3, #30
 690 01f0 03D5     		bpl	.L42
 474:Drivers/STM32G0xx_HAL_Driver/Src/stm32g0xx_hal_rcc.c ****       {
 691              		.loc 1 474 49 discriminator 1 view .LVU218
 692 01f2 A369     		ldr	r3, [r4, #24]
 693 01f4 002B     		cmp	r3, #0
 694 01f6 00D1     		bne	.LCB626
 695 01f8 3AE1     		b	.L106	@long jump
 696              	.LCB626:
 697              	.L42:
 496:Drivers/STM32G0xx_HAL_Driver/Src/stm32g0xx_hal_rcc.c ****           }
 497:Drivers/STM32G0xx_HAL_Driver/Src/stm32g0xx_hal_rcc.c ****         }
 498:Drivers/STM32G0xx_HAL_Driver/Src/stm32g0xx_hal_rcc.c ****       }
 499:Drivers/STM32G0xx_HAL_Driver/Src/stm32g0xx_hal_rcc.c ****       else
 500:Drivers/STM32G0xx_HAL_Driver/Src/stm32g0xx_hal_rcc.c ****       {
 501:Drivers/STM32G0xx_HAL_Driver/Src/stm32g0xx_hal_rcc.c ****         /* Disable the Internal Low Speed oscillator (LSI). */
 502:Drivers/STM32G0xx_HAL_Driver/Src/stm32g0xx_hal_rcc.c ****         __HAL_RCC_LSI_DISABLE();
 503:Drivers/STM32G0xx_HAL_Driver/Src/stm32g0xx_hal_rcc.c **** 
 504:Drivers/STM32G0xx_HAL_Driver/Src/stm32g0xx_hal_rcc.c ****         /* Get Start Tick*/
 505:Drivers/STM32G0xx_HAL_Driver/Src/stm32g0xx_hal_rcc.c ****         tickstart = HAL_GetTick();
 506:Drivers/STM32G0xx_HAL_Driver/Src/stm32g0xx_hal_rcc.c **** 
 507:Drivers/STM32G0xx_HAL_Driver/Src/stm32g0xx_hal_rcc.c ****         /* Wait till LSI is disabled */
 508:Drivers/STM32G0xx_HAL_Driver/Src/stm32g0xx_hal_rcc.c ****         while (READ_BIT(RCC->CSR, RCC_CSR_LSIRDY) != 0U)
 509:Drivers/STM32G0xx_HAL_Driver/Src/stm32g0xx_hal_rcc.c ****         {
 510:Drivers/STM32G0xx_HAL_Driver/Src/stm32g0xx_hal_rcc.c ****           if ((HAL_GetTick() - tickstart) > LSI_TIMEOUT_VALUE)
 511:Drivers/STM32G0xx_HAL_Driver/Src/stm32g0xx_hal_rcc.c ****           {
ARM GAS  C:\Users\tugru\AppData\Local\Temp\ccZeWSML.s 			page 24


 512:Drivers/STM32G0xx_HAL_Driver/Src/stm32g0xx_hal_rcc.c ****             return HAL_TIMEOUT;
 513:Drivers/STM32G0xx_HAL_Driver/Src/stm32g0xx_hal_rcc.c ****           }
 514:Drivers/STM32G0xx_HAL_Driver/Src/stm32g0xx_hal_rcc.c ****         }
 515:Drivers/STM32G0xx_HAL_Driver/Src/stm32g0xx_hal_rcc.c ****       }
 516:Drivers/STM32G0xx_HAL_Driver/Src/stm32g0xx_hal_rcc.c ****     }
 517:Drivers/STM32G0xx_HAL_Driver/Src/stm32g0xx_hal_rcc.c ****   }
 518:Drivers/STM32G0xx_HAL_Driver/Src/stm32g0xx_hal_rcc.c ****   /*------------------------------ LSE Configuration -------------------------*/
 519:Drivers/STM32G0xx_HAL_Driver/Src/stm32g0xx_hal_rcc.c ****   if (((RCC_OscInitStruct->OscillatorType) & RCC_OSCILLATORTYPE_LSE) == RCC_OSCILLATORTYPE_LSE)
 698              		.loc 1 519 3 is_stmt 1 view .LVU219
 699              		.loc 1 519 6 is_stmt 0 view .LVU220
 700 01fa 2368     		ldr	r3, [r4]
 701 01fc 5B07     		lsls	r3, r3, #29
 702 01fe 00D4     		bmi	.LCB635
 703 0200 A2E0     		b	.L49	@long jump
 704              	.LCB635:
 705              	.LBB4:
 520:Drivers/STM32G0xx_HAL_Driver/Src/stm32g0xx_hal_rcc.c ****   {
 521:Drivers/STM32G0xx_HAL_Driver/Src/stm32g0xx_hal_rcc.c ****     FlagStatus       pwrclkchanged = RESET;
 706              		.loc 1 521 5 is_stmt 1 view .LVU221
 707              	.LVL56:
 522:Drivers/STM32G0xx_HAL_Driver/Src/stm32g0xx_hal_rcc.c **** 
 523:Drivers/STM32G0xx_HAL_Driver/Src/stm32g0xx_hal_rcc.c ****     /* Check the parameters */
 524:Drivers/STM32G0xx_HAL_Driver/Src/stm32g0xx_hal_rcc.c ****     assert_param(IS_RCC_LSE(RCC_OscInitStruct->LSEState));
 708              		.loc 1 524 5 view .LVU222
 525:Drivers/STM32G0xx_HAL_Driver/Src/stm32g0xx_hal_rcc.c **** 
 526:Drivers/STM32G0xx_HAL_Driver/Src/stm32g0xx_hal_rcc.c ****     /* When the LSE is used as system clock, it is not allowed disable it */
 527:Drivers/STM32G0xx_HAL_Driver/Src/stm32g0xx_hal_rcc.c ****     if (__HAL_RCC_GET_SYSCLK_SOURCE() == RCC_SYSCLKSOURCE_STATUS_LSE)
 709              		.loc 1 527 5 view .LVU223
 710              		.loc 1 527 9 is_stmt 0 view .LVU224
 711 0202 454B     		ldr	r3, .L116
 712 0204 9A68     		ldr	r2, [r3, #8]
 713 0206 3823     		movs	r3, #56
 714 0208 1340     		ands	r3, r2
 715              		.loc 1 527 8 view .LVU225
 716 020a 202B     		cmp	r3, #32
 717 020c 45D0     		beq	.L107
 528:Drivers/STM32G0xx_HAL_Driver/Src/stm32g0xx_hal_rcc.c ****     {
 529:Drivers/STM32G0xx_HAL_Driver/Src/stm32g0xx_hal_rcc.c ****       if ((((RCC->BDCR) & RCC_BDCR_LSERDY) != 0U) && (RCC_OscInitStruct->LSEState == RCC_LSE_OFF))
 530:Drivers/STM32G0xx_HAL_Driver/Src/stm32g0xx_hal_rcc.c ****       {
 531:Drivers/STM32G0xx_HAL_Driver/Src/stm32g0xx_hal_rcc.c ****         return HAL_ERROR;
 532:Drivers/STM32G0xx_HAL_Driver/Src/stm32g0xx_hal_rcc.c ****       }
 533:Drivers/STM32G0xx_HAL_Driver/Src/stm32g0xx_hal_rcc.c ****     }
 534:Drivers/STM32G0xx_HAL_Driver/Src/stm32g0xx_hal_rcc.c ****     else
 535:Drivers/STM32G0xx_HAL_Driver/Src/stm32g0xx_hal_rcc.c ****     {
 536:Drivers/STM32G0xx_HAL_Driver/Src/stm32g0xx_hal_rcc.c ****       /* Update LSE configuration in Backup Domain control register    */
 537:Drivers/STM32G0xx_HAL_Driver/Src/stm32g0xx_hal_rcc.c ****       /* Requires to enable write access to Backup Domain of necessary */
 538:Drivers/STM32G0xx_HAL_Driver/Src/stm32g0xx_hal_rcc.c ****       if (__HAL_RCC_PWR_IS_CLK_DISABLED() != 0U)
 718              		.loc 1 538 7 is_stmt 1 view .LVU226
 719              		.loc 1 538 11 is_stmt 0 view .LVU227
 720 020e 424B     		ldr	r3, .L116
 721 0210 DB6B     		ldr	r3, [r3, #60]
 722              		.loc 1 538 43 view .LVU228
 723 0212 DB00     		lsls	r3, r3, #3
 724 0214 4AD4     		bmi	.L84
 539:Drivers/STM32G0xx_HAL_Driver/Src/stm32g0xx_hal_rcc.c ****       {
 540:Drivers/STM32G0xx_HAL_Driver/Src/stm32g0xx_hal_rcc.c ****         __HAL_RCC_PWR_CLK_ENABLE();
 725              		.loc 1 540 9 is_stmt 1 view .LVU229
ARM GAS  C:\Users\tugru\AppData\Local\Temp\ccZeWSML.s 			page 25


 726              	.LBB5:
 727              		.loc 1 540 9 view .LVU230
 728              		.loc 1 540 9 view .LVU231
 729 0216 404A     		ldr	r2, .L116
 730 0218 D16B     		ldr	r1, [r2, #60]
 731 021a 8020     		movs	r0, #128
 732 021c 4005     		lsls	r0, r0, #21
 733 021e 0143     		orrs	r1, r0
 734 0220 D163     		str	r1, [r2, #60]
 735              		.loc 1 540 9 view .LVU232
 736 0222 D36B     		ldr	r3, [r2, #60]
 737 0224 0340     		ands	r3, r0
 738 0226 0193     		str	r3, [sp, #4]
 739              		.loc 1 540 9 view .LVU233
 740 0228 019B     		ldr	r3, [sp, #4]
 741              	.LBE5:
 742              		.loc 1 540 9 view .LVU234
 541:Drivers/STM32G0xx_HAL_Driver/Src/stm32g0xx_hal_rcc.c ****         pwrclkchanged = SET;
 743              		.loc 1 541 9 view .LVU235
 744              	.LVL57:
 745              		.loc 1 541 23 is_stmt 0 view .LVU236
 746 022a 0125     		movs	r5, #1
 747              	.LVL58:
 748              	.L51:
 542:Drivers/STM32G0xx_HAL_Driver/Src/stm32g0xx_hal_rcc.c ****       }
 543:Drivers/STM32G0xx_HAL_Driver/Src/stm32g0xx_hal_rcc.c **** 
 544:Drivers/STM32G0xx_HAL_Driver/Src/stm32g0xx_hal_rcc.c ****       if (HAL_IS_BIT_CLR(PWR->CR1, PWR_CR1_DBP))
 749              		.loc 1 544 7 is_stmt 1 view .LVU237
 750              		.loc 1 544 11 is_stmt 0 view .LVU238
 751 022c 434B     		ldr	r3, .L116+36
 752 022e 1B68     		ldr	r3, [r3]
 753              		.loc 1 544 10 view .LVU239
 754 0230 DB05     		lsls	r3, r3, #23
 755 0232 3DD5     		bpl	.L108
 756              	.L52:
 545:Drivers/STM32G0xx_HAL_Driver/Src/stm32g0xx_hal_rcc.c ****       {
 546:Drivers/STM32G0xx_HAL_Driver/Src/stm32g0xx_hal_rcc.c ****         /* Enable write access to Backup domain */
 547:Drivers/STM32G0xx_HAL_Driver/Src/stm32g0xx_hal_rcc.c ****         SET_BIT(PWR->CR1, PWR_CR1_DBP);
 548:Drivers/STM32G0xx_HAL_Driver/Src/stm32g0xx_hal_rcc.c **** 
 549:Drivers/STM32G0xx_HAL_Driver/Src/stm32g0xx_hal_rcc.c ****         /* Wait for Backup domain Write protection disable */
 550:Drivers/STM32G0xx_HAL_Driver/Src/stm32g0xx_hal_rcc.c ****         tickstart = HAL_GetTick();
 551:Drivers/STM32G0xx_HAL_Driver/Src/stm32g0xx_hal_rcc.c **** 
 552:Drivers/STM32G0xx_HAL_Driver/Src/stm32g0xx_hal_rcc.c ****         while (HAL_IS_BIT_CLR(PWR->CR1, PWR_CR1_DBP))
 553:Drivers/STM32G0xx_HAL_Driver/Src/stm32g0xx_hal_rcc.c ****         {
 554:Drivers/STM32G0xx_HAL_Driver/Src/stm32g0xx_hal_rcc.c ****           if ((HAL_GetTick() - tickstart) > RCC_DBP_TIMEOUT_VALUE)
 555:Drivers/STM32G0xx_HAL_Driver/Src/stm32g0xx_hal_rcc.c ****           {
 556:Drivers/STM32G0xx_HAL_Driver/Src/stm32g0xx_hal_rcc.c ****             return HAL_TIMEOUT;
 557:Drivers/STM32G0xx_HAL_Driver/Src/stm32g0xx_hal_rcc.c ****           }
 558:Drivers/STM32G0xx_HAL_Driver/Src/stm32g0xx_hal_rcc.c ****         }
 559:Drivers/STM32G0xx_HAL_Driver/Src/stm32g0xx_hal_rcc.c ****       }
 560:Drivers/STM32G0xx_HAL_Driver/Src/stm32g0xx_hal_rcc.c **** 
 561:Drivers/STM32G0xx_HAL_Driver/Src/stm32g0xx_hal_rcc.c ****       /* Set the new LSE configuration -----------------------------------------*/
 562:Drivers/STM32G0xx_HAL_Driver/Src/stm32g0xx_hal_rcc.c ****       __HAL_RCC_LSE_CONFIG(RCC_OscInitStruct->LSEState);
 757              		.loc 1 562 7 is_stmt 1 view .LVU240
 758              		.loc 1 562 7 view .LVU241
 759 0234 A368     		ldr	r3, [r4, #8]
 760 0236 012B     		cmp	r3, #1
ARM GAS  C:\Users\tugru\AppData\Local\Temp\ccZeWSML.s 			page 26


 761 0238 4ED0     		beq	.L109
 762              		.loc 1 562 7 discriminator 2 view .LVU242
 763 023a 052B     		cmp	r3, #5
 764 023c 52D0     		beq	.L110
 765              		.loc 1 562 7 discriminator 5 view .LVU243
 766 023e 364B     		ldr	r3, .L116
 767 0240 DA6D     		ldr	r2, [r3, #92]
 768 0242 0121     		movs	r1, #1
 769 0244 8A43     		bics	r2, r1
 770 0246 DA65     		str	r2, [r3, #92]
 771              		.loc 1 562 7 discriminator 5 view .LVU244
 772 0248 DA6D     		ldr	r2, [r3, #92]
 773 024a 0331     		adds	r1, r1, #3
 774 024c 8A43     		bics	r2, r1
 775 024e DA65     		str	r2, [r3, #92]
 776              	.L56:
 777              		.loc 1 562 7 discriminator 7 view .LVU245
 563:Drivers/STM32G0xx_HAL_Driver/Src/stm32g0xx_hal_rcc.c **** 
 564:Drivers/STM32G0xx_HAL_Driver/Src/stm32g0xx_hal_rcc.c ****       /* Check the LSE State */
 565:Drivers/STM32G0xx_HAL_Driver/Src/stm32g0xx_hal_rcc.c ****       if (RCC_OscInitStruct->LSEState != RCC_LSE_OFF)
 778              		.loc 1 565 7 discriminator 7 view .LVU246
 779              		.loc 1 565 10 is_stmt 0 discriminator 7 view .LVU247
 780 0250 A368     		ldr	r3, [r4, #8]
 781 0252 002B     		cmp	r3, #0
 782 0254 50D0     		beq	.L58
 566:Drivers/STM32G0xx_HAL_Driver/Src/stm32g0xx_hal_rcc.c ****       {
 567:Drivers/STM32G0xx_HAL_Driver/Src/stm32g0xx_hal_rcc.c ****         /* Get Start Tick*/
 568:Drivers/STM32G0xx_HAL_Driver/Src/stm32g0xx_hal_rcc.c ****         tickstart = HAL_GetTick();
 783              		.loc 1 568 9 is_stmt 1 view .LVU248
 784              		.loc 1 568 21 is_stmt 0 view .LVU249
 785 0256 FFF7FEFF 		bl	HAL_GetTick
 786              	.LVL59:
 787 025a 0600     		movs	r6, r0
 788              	.LVL60:
 569:Drivers/STM32G0xx_HAL_Driver/Src/stm32g0xx_hal_rcc.c **** 
 570:Drivers/STM32G0xx_HAL_Driver/Src/stm32g0xx_hal_rcc.c ****         /* Wait till LSE is ready */
 571:Drivers/STM32G0xx_HAL_Driver/Src/stm32g0xx_hal_rcc.c ****         while (READ_BIT(RCC->BDCR, RCC_BDCR_LSERDY) == 0U)
 789              		.loc 1 571 9 is_stmt 1 view .LVU250
 790              	.L59:
 791              		.loc 1 571 15 view .LVU251
 792              		.loc 1 571 16 is_stmt 0 view .LVU252
 793 025c 2E4B     		ldr	r3, .L116
 794 025e DB6D     		ldr	r3, [r3, #92]
 795              		.loc 1 571 15 view .LVU253
 796 0260 9B07     		lsls	r3, r3, #30
 797 0262 6FD4     		bmi	.L61
 572:Drivers/STM32G0xx_HAL_Driver/Src/stm32g0xx_hal_rcc.c ****         {
 573:Drivers/STM32G0xx_HAL_Driver/Src/stm32g0xx_hal_rcc.c ****           if ((HAL_GetTick() - tickstart) > RCC_LSE_TIMEOUT_VALUE)
 798              		.loc 1 573 11 is_stmt 1 view .LVU254
 799              		.loc 1 573 16 is_stmt 0 view .LVU255
 800 0264 FFF7FEFF 		bl	HAL_GetTick
 801              	.LVL61:
 802              		.loc 1 573 30 view .LVU256
 803 0268 801B     		subs	r0, r0, r6
 804              		.loc 1 573 14 view .LVU257
 805 026a 354B     		ldr	r3, .L116+40
 806 026c 9842     		cmp	r0, r3
ARM GAS  C:\Users\tugru\AppData\Local\Temp\ccZeWSML.s 			page 27


 807 026e F5D9     		bls	.L59
 574:Drivers/STM32G0xx_HAL_Driver/Src/stm32g0xx_hal_rcc.c ****           {
 575:Drivers/STM32G0xx_HAL_Driver/Src/stm32g0xx_hal_rcc.c ****             return HAL_TIMEOUT;
 808              		.loc 1 575 20 view .LVU258
 809 0270 0320     		movs	r0, #3
 810 0272 F5E0     		b	.L18
 811              	.LVL62:
 812              	.L44:
 813              		.loc 1 575 20 view .LVU259
 814              	.LBE4:
 502:Drivers/STM32G0xx_HAL_Driver/Src/stm32g0xx_hal_rcc.c **** 
 815              		.loc 1 502 9 is_stmt 1 view .LVU260
 816 0274 284A     		ldr	r2, .L116
 817 0276 136E     		ldr	r3, [r2, #96]
 818 0278 0121     		movs	r1, #1
 819 027a 8B43     		bics	r3, r1
 820 027c 1366     		str	r3, [r2, #96]
 505:Drivers/STM32G0xx_HAL_Driver/Src/stm32g0xx_hal_rcc.c **** 
 821              		.loc 1 505 9 view .LVU261
 505:Drivers/STM32G0xx_HAL_Driver/Src/stm32g0xx_hal_rcc.c **** 
 822              		.loc 1 505 21 is_stmt 0 view .LVU262
 823 027e FFF7FEFF 		bl	HAL_GetTick
 824              	.LVL63:
 825 0282 0500     		movs	r5, r0
 826              	.LVL64:
 508:Drivers/STM32G0xx_HAL_Driver/Src/stm32g0xx_hal_rcc.c ****         {
 827              		.loc 1 508 9 is_stmt 1 view .LVU263
 828              	.L47:
 508:Drivers/STM32G0xx_HAL_Driver/Src/stm32g0xx_hal_rcc.c ****         {
 829              		.loc 1 508 15 view .LVU264
 508:Drivers/STM32G0xx_HAL_Driver/Src/stm32g0xx_hal_rcc.c ****         {
 830              		.loc 1 508 16 is_stmt 0 view .LVU265
 831 0284 244B     		ldr	r3, .L116
 832 0286 1B6E     		ldr	r3, [r3, #96]
 508:Drivers/STM32G0xx_HAL_Driver/Src/stm32g0xx_hal_rcc.c ****         {
 833              		.loc 1 508 15 view .LVU266
 834 0288 9B07     		lsls	r3, r3, #30
 835 028a B6D5     		bpl	.L42
 510:Drivers/STM32G0xx_HAL_Driver/Src/stm32g0xx_hal_rcc.c ****           {
 836              		.loc 1 510 11 is_stmt 1 view .LVU267
 510:Drivers/STM32G0xx_HAL_Driver/Src/stm32g0xx_hal_rcc.c ****           {
 837              		.loc 1 510 16 is_stmt 0 view .LVU268
 838 028c FFF7FEFF 		bl	HAL_GetTick
 839              	.LVL65:
 510:Drivers/STM32G0xx_HAL_Driver/Src/stm32g0xx_hal_rcc.c ****           {
 840              		.loc 1 510 30 view .LVU269
 841 0290 401B     		subs	r0, r0, r5
 510:Drivers/STM32G0xx_HAL_Driver/Src/stm32g0xx_hal_rcc.c ****           {
 842              		.loc 1 510 14 view .LVU270
 843 0292 0228     		cmp	r0, #2
 844 0294 F6D9     		bls	.L47
 512:Drivers/STM32G0xx_HAL_Driver/Src/stm32g0xx_hal_rcc.c ****           }
 845              		.loc 1 512 20 view .LVU271
 846 0296 0320     		movs	r0, #3
 847 0298 E2E0     		b	.L18
 848              	.LVL66:
 849              	.L107:
ARM GAS  C:\Users\tugru\AppData\Local\Temp\ccZeWSML.s 			page 28


 850              	.LBB6:
 529:Drivers/STM32G0xx_HAL_Driver/Src/stm32g0xx_hal_rcc.c ****       {
 851              		.loc 1 529 7 is_stmt 1 view .LVU272
 529:Drivers/STM32G0xx_HAL_Driver/Src/stm32g0xx_hal_rcc.c ****       {
 852              		.loc 1 529 17 is_stmt 0 view .LVU273
 853 029a 1F4B     		ldr	r3, .L116
 854 029c DB6D     		ldr	r3, [r3, #92]
 529:Drivers/STM32G0xx_HAL_Driver/Src/stm32g0xx_hal_rcc.c ****       {
 855              		.loc 1 529 10 view .LVU274
 856 029e 9B07     		lsls	r3, r3, #30
 857 02a0 52D5     		bpl	.L49
 529:Drivers/STM32G0xx_HAL_Driver/Src/stm32g0xx_hal_rcc.c ****       {
 858              		.loc 1 529 51 discriminator 1 view .LVU275
 859 02a2 A368     		ldr	r3, [r4, #8]
 860 02a4 002B     		cmp	r3, #0
 861 02a6 4FD1     		bne	.L49
 531:Drivers/STM32G0xx_HAL_Driver/Src/stm32g0xx_hal_rcc.c ****       }
 862              		.loc 1 531 16 view .LVU276
 863 02a8 0120     		movs	r0, #1
 864 02aa D9E0     		b	.L18
 865              	.L84:
 521:Drivers/STM32G0xx_HAL_Driver/Src/stm32g0xx_hal_rcc.c **** 
 866              		.loc 1 521 22 view .LVU277
 867 02ac 0025     		movs	r5, #0
 868 02ae BDE7     		b	.L51
 869              	.LVL67:
 870              	.L108:
 547:Drivers/STM32G0xx_HAL_Driver/Src/stm32g0xx_hal_rcc.c **** 
 871              		.loc 1 547 9 is_stmt 1 view .LVU278
 872 02b0 224A     		ldr	r2, .L116+36
 873 02b2 1168     		ldr	r1, [r2]
 874 02b4 8023     		movs	r3, #128
 875 02b6 5B00     		lsls	r3, r3, #1
 876 02b8 0B43     		orrs	r3, r1
 877 02ba 1360     		str	r3, [r2]
 550:Drivers/STM32G0xx_HAL_Driver/Src/stm32g0xx_hal_rcc.c **** 
 878              		.loc 1 550 9 view .LVU279
 550:Drivers/STM32G0xx_HAL_Driver/Src/stm32g0xx_hal_rcc.c **** 
 879              		.loc 1 550 21 is_stmt 0 view .LVU280
 880 02bc FFF7FEFF 		bl	HAL_GetTick
 881              	.LVL68:
 882 02c0 0600     		movs	r6, r0
 883              	.LVL69:
 552:Drivers/STM32G0xx_HAL_Driver/Src/stm32g0xx_hal_rcc.c ****         {
 884              		.loc 1 552 9 is_stmt 1 view .LVU281
 885              	.L53:
 552:Drivers/STM32G0xx_HAL_Driver/Src/stm32g0xx_hal_rcc.c ****         {
 886              		.loc 1 552 15 view .LVU282
 552:Drivers/STM32G0xx_HAL_Driver/Src/stm32g0xx_hal_rcc.c ****         {
 887              		.loc 1 552 16 is_stmt 0 view .LVU283
 888 02c2 1E4B     		ldr	r3, .L116+36
 889 02c4 1B68     		ldr	r3, [r3]
 552:Drivers/STM32G0xx_HAL_Driver/Src/stm32g0xx_hal_rcc.c ****         {
 890              		.loc 1 552 15 view .LVU284
 891 02c6 DB05     		lsls	r3, r3, #23
 892 02c8 B4D4     		bmi	.L52
 554:Drivers/STM32G0xx_HAL_Driver/Src/stm32g0xx_hal_rcc.c ****           {
ARM GAS  C:\Users\tugru\AppData\Local\Temp\ccZeWSML.s 			page 29


 893              		.loc 1 554 11 is_stmt 1 view .LVU285
 554:Drivers/STM32G0xx_HAL_Driver/Src/stm32g0xx_hal_rcc.c ****           {
 894              		.loc 1 554 16 is_stmt 0 view .LVU286
 895 02ca FFF7FEFF 		bl	HAL_GetTick
 896              	.LVL70:
 554:Drivers/STM32G0xx_HAL_Driver/Src/stm32g0xx_hal_rcc.c ****           {
 897              		.loc 1 554 30 view .LVU287
 898 02ce 801B     		subs	r0, r0, r6
 554:Drivers/STM32G0xx_HAL_Driver/Src/stm32g0xx_hal_rcc.c ****           {
 899              		.loc 1 554 14 view .LVU288
 900 02d0 0228     		cmp	r0, #2
 901 02d2 F6D9     		bls	.L53
 556:Drivers/STM32G0xx_HAL_Driver/Src/stm32g0xx_hal_rcc.c ****           }
 902              		.loc 1 556 20 view .LVU289
 903 02d4 0320     		movs	r0, #3
 904 02d6 C3E0     		b	.L18
 905              	.LVL71:
 906              	.L109:
 562:Drivers/STM32G0xx_HAL_Driver/Src/stm32g0xx_hal_rcc.c **** 
 907              		.loc 1 562 7 is_stmt 1 discriminator 1 view .LVU290
 908 02d8 0F4A     		ldr	r2, .L116
 909 02da D36D     		ldr	r3, [r2, #92]
 910 02dc 0121     		movs	r1, #1
 911 02de 0B43     		orrs	r3, r1
 912 02e0 D365     		str	r3, [r2, #92]
 913 02e2 B5E7     		b	.L56
 914              	.L110:
 562:Drivers/STM32G0xx_HAL_Driver/Src/stm32g0xx_hal_rcc.c **** 
 915              		.loc 1 562 7 discriminator 4 view .LVU291
 916 02e4 0C4B     		ldr	r3, .L116
 917 02e6 DA6D     		ldr	r2, [r3, #92]
 918 02e8 0421     		movs	r1, #4
 919 02ea 0A43     		orrs	r2, r1
 920 02ec DA65     		str	r2, [r3, #92]
 562:Drivers/STM32G0xx_HAL_Driver/Src/stm32g0xx_hal_rcc.c **** 
 921              		.loc 1 562 7 discriminator 4 view .LVU292
 922 02ee DA6D     		ldr	r2, [r3, #92]
 923 02f0 0339     		subs	r1, r1, #3
 924 02f2 0A43     		orrs	r2, r1
 925 02f4 DA65     		str	r2, [r3, #92]
 926 02f6 ABE7     		b	.L56
 927              	.L58:
 576:Drivers/STM32G0xx_HAL_Driver/Src/stm32g0xx_hal_rcc.c ****           }
 577:Drivers/STM32G0xx_HAL_Driver/Src/stm32g0xx_hal_rcc.c ****         }
 578:Drivers/STM32G0xx_HAL_Driver/Src/stm32g0xx_hal_rcc.c ****       }
 579:Drivers/STM32G0xx_HAL_Driver/Src/stm32g0xx_hal_rcc.c ****       else
 580:Drivers/STM32G0xx_HAL_Driver/Src/stm32g0xx_hal_rcc.c ****       {
 581:Drivers/STM32G0xx_HAL_Driver/Src/stm32g0xx_hal_rcc.c ****         /* Get Start Tick*/
 582:Drivers/STM32G0xx_HAL_Driver/Src/stm32g0xx_hal_rcc.c ****         tickstart = HAL_GetTick();
 928              		.loc 1 582 9 view .LVU293
 929              		.loc 1 582 21 is_stmt 0 view .LVU294
 930 02f8 FFF7FEFF 		bl	HAL_GetTick
 931              	.LVL72:
 932 02fc 0600     		movs	r6, r0
 933              	.LVL73:
 583:Drivers/STM32G0xx_HAL_Driver/Src/stm32g0xx_hal_rcc.c **** 
 584:Drivers/STM32G0xx_HAL_Driver/Src/stm32g0xx_hal_rcc.c ****         /* Wait till LSE is disabled */
ARM GAS  C:\Users\tugru\AppData\Local\Temp\ccZeWSML.s 			page 30


 585:Drivers/STM32G0xx_HAL_Driver/Src/stm32g0xx_hal_rcc.c ****         while (READ_BIT(RCC->BDCR, RCC_BDCR_LSERDY) != 0U)
 934              		.loc 1 585 9 is_stmt 1 view .LVU295
 935              	.L62:
 936              		.loc 1 585 15 view .LVU296
 937              		.loc 1 585 16 is_stmt 0 view .LVU297
 938 02fe 064B     		ldr	r3, .L116
 939 0300 DB6D     		ldr	r3, [r3, #92]
 940              		.loc 1 585 15 view .LVU298
 941 0302 9B07     		lsls	r3, r3, #30
 942 0304 1ED5     		bpl	.L61
 586:Drivers/STM32G0xx_HAL_Driver/Src/stm32g0xx_hal_rcc.c ****         {
 587:Drivers/STM32G0xx_HAL_Driver/Src/stm32g0xx_hal_rcc.c ****           if ((HAL_GetTick() - tickstart) > RCC_LSE_TIMEOUT_VALUE)
 943              		.loc 1 587 11 is_stmt 1 view .LVU299
 944              		.loc 1 587 16 is_stmt 0 view .LVU300
 945 0306 FFF7FEFF 		bl	HAL_GetTick
 946              	.LVL74:
 947              		.loc 1 587 30 view .LVU301
 948 030a 801B     		subs	r0, r0, r6
 949              		.loc 1 587 14 view .LVU302
 950 030c 0C4B     		ldr	r3, .L116+40
 951 030e 9842     		cmp	r0, r3
 952 0310 F5D9     		bls	.L62
 588:Drivers/STM32G0xx_HAL_Driver/Src/stm32g0xx_hal_rcc.c ****           {
 589:Drivers/STM32G0xx_HAL_Driver/Src/stm32g0xx_hal_rcc.c ****             return HAL_TIMEOUT;
 953              		.loc 1 589 20 view .LVU303
 954 0312 0320     		movs	r0, #3
 955 0314 A4E0     		b	.L18
 956              	.L117:
 957 0316 C046     		.align	2
 958              	.L116:
 959 0318 00100240 		.word	1073876992
 960 031c FFFFFEFF 		.word	-65537
 961 0320 FFFFFBFF 		.word	-262145
 962 0324 FF80FFFF 		.word	-32513
 963 0328 FFC7FFFF 		.word	-14337
 964 032c 0024F400 		.word	16000000
 965 0330 00000000 		.word	SystemCoreClock
 966 0334 00000000 		.word	uwTickPrio
 967 0338 FFFEFFFF 		.word	-257
 968 033c 00700040 		.word	1073770496
 969 0340 88130000 		.word	5000
 970              	.L61:
 590:Drivers/STM32G0xx_HAL_Driver/Src/stm32g0xx_hal_rcc.c ****           }
 591:Drivers/STM32G0xx_HAL_Driver/Src/stm32g0xx_hal_rcc.c ****         }
 592:Drivers/STM32G0xx_HAL_Driver/Src/stm32g0xx_hal_rcc.c ****       }
 593:Drivers/STM32G0xx_HAL_Driver/Src/stm32g0xx_hal_rcc.c **** 
 594:Drivers/STM32G0xx_HAL_Driver/Src/stm32g0xx_hal_rcc.c ****       /* Restore clock configuration if changed */
 595:Drivers/STM32G0xx_HAL_Driver/Src/stm32g0xx_hal_rcc.c ****       if (pwrclkchanged == SET)
 971              		.loc 1 595 7 is_stmt 1 view .LVU304
 972              		.loc 1 595 10 is_stmt 0 view .LVU305
 973 0344 012D     		cmp	r5, #1
 974 0346 1ED0     		beq	.L111
 975              	.LVL75:
 976              	.L49:
 977              		.loc 1 595 10 view .LVU306
 978              	.LBE6:
 596:Drivers/STM32G0xx_HAL_Driver/Src/stm32g0xx_hal_rcc.c ****       {
ARM GAS  C:\Users\tugru\AppData\Local\Temp\ccZeWSML.s 			page 31


 597:Drivers/STM32G0xx_HAL_Driver/Src/stm32g0xx_hal_rcc.c ****         __HAL_RCC_PWR_CLK_DISABLE();
 598:Drivers/STM32G0xx_HAL_Driver/Src/stm32g0xx_hal_rcc.c ****       }
 599:Drivers/STM32G0xx_HAL_Driver/Src/stm32g0xx_hal_rcc.c ****     }
 600:Drivers/STM32G0xx_HAL_Driver/Src/stm32g0xx_hal_rcc.c ****   }
 601:Drivers/STM32G0xx_HAL_Driver/Src/stm32g0xx_hal_rcc.c **** #if defined(RCC_HSI48_SUPPORT)
 602:Drivers/STM32G0xx_HAL_Driver/Src/stm32g0xx_hal_rcc.c ****   /*------------------------------ HSI48 Configuration -----------------------*/
 603:Drivers/STM32G0xx_HAL_Driver/Src/stm32g0xx_hal_rcc.c ****   if (((RCC_OscInitStruct->OscillatorType) & RCC_OSCILLATORTYPE_HSI48) == RCC_OSCILLATORTYPE_HSI48)
 604:Drivers/STM32G0xx_HAL_Driver/Src/stm32g0xx_hal_rcc.c ****   {
 605:Drivers/STM32G0xx_HAL_Driver/Src/stm32g0xx_hal_rcc.c ****     /* Check the parameters */
 606:Drivers/STM32G0xx_HAL_Driver/Src/stm32g0xx_hal_rcc.c ****     assert_param(IS_RCC_HSI48(RCC_OscInitStruct->HSI48State));
 607:Drivers/STM32G0xx_HAL_Driver/Src/stm32g0xx_hal_rcc.c **** 
 608:Drivers/STM32G0xx_HAL_Driver/Src/stm32g0xx_hal_rcc.c ****     /* Check the LSI State */
 609:Drivers/STM32G0xx_HAL_Driver/Src/stm32g0xx_hal_rcc.c ****     if (RCC_OscInitStruct->HSI48State != RCC_HSI48_OFF)
 610:Drivers/STM32G0xx_HAL_Driver/Src/stm32g0xx_hal_rcc.c ****     {
 611:Drivers/STM32G0xx_HAL_Driver/Src/stm32g0xx_hal_rcc.c ****       /* Enable the Internal Low Speed oscillator (HSI48). */
 612:Drivers/STM32G0xx_HAL_Driver/Src/stm32g0xx_hal_rcc.c ****       __HAL_RCC_HSI48_ENABLE();
 613:Drivers/STM32G0xx_HAL_Driver/Src/stm32g0xx_hal_rcc.c **** 
 614:Drivers/STM32G0xx_HAL_Driver/Src/stm32g0xx_hal_rcc.c ****       /* Get Start Tick*/
 615:Drivers/STM32G0xx_HAL_Driver/Src/stm32g0xx_hal_rcc.c ****       tickstart = HAL_GetTick();
 616:Drivers/STM32G0xx_HAL_Driver/Src/stm32g0xx_hal_rcc.c **** 
 617:Drivers/STM32G0xx_HAL_Driver/Src/stm32g0xx_hal_rcc.c ****       /* Wait till HSI48 is ready */
 618:Drivers/STM32G0xx_HAL_Driver/Src/stm32g0xx_hal_rcc.c ****       while (READ_BIT(RCC->CR, RCC_CR_HSI48RDY) == 0U)
 619:Drivers/STM32G0xx_HAL_Driver/Src/stm32g0xx_hal_rcc.c ****       {
 620:Drivers/STM32G0xx_HAL_Driver/Src/stm32g0xx_hal_rcc.c ****         if ((HAL_GetTick() - tickstart) > HSI48_TIMEOUT_VALUE)
 621:Drivers/STM32G0xx_HAL_Driver/Src/stm32g0xx_hal_rcc.c ****         {
 622:Drivers/STM32G0xx_HAL_Driver/Src/stm32g0xx_hal_rcc.c ****           return HAL_TIMEOUT;
 623:Drivers/STM32G0xx_HAL_Driver/Src/stm32g0xx_hal_rcc.c ****         }
 624:Drivers/STM32G0xx_HAL_Driver/Src/stm32g0xx_hal_rcc.c ****       }
 625:Drivers/STM32G0xx_HAL_Driver/Src/stm32g0xx_hal_rcc.c ****     }
 626:Drivers/STM32G0xx_HAL_Driver/Src/stm32g0xx_hal_rcc.c ****     else
 627:Drivers/STM32G0xx_HAL_Driver/Src/stm32g0xx_hal_rcc.c ****     {
 628:Drivers/STM32G0xx_HAL_Driver/Src/stm32g0xx_hal_rcc.c ****       /* Disable the Internal Low Speed oscillator (HSI48). */
 629:Drivers/STM32G0xx_HAL_Driver/Src/stm32g0xx_hal_rcc.c ****       __HAL_RCC_HSI48_DISABLE();
 630:Drivers/STM32G0xx_HAL_Driver/Src/stm32g0xx_hal_rcc.c **** 
 631:Drivers/STM32G0xx_HAL_Driver/Src/stm32g0xx_hal_rcc.c ****       /* Get Start Tick*/
 632:Drivers/STM32G0xx_HAL_Driver/Src/stm32g0xx_hal_rcc.c ****       tickstart = HAL_GetTick();
 633:Drivers/STM32G0xx_HAL_Driver/Src/stm32g0xx_hal_rcc.c **** 
 634:Drivers/STM32G0xx_HAL_Driver/Src/stm32g0xx_hal_rcc.c ****       /* Wait till HSI48 is disabled */
 635:Drivers/STM32G0xx_HAL_Driver/Src/stm32g0xx_hal_rcc.c ****       while (READ_BIT(RCC->CR, RCC_CR_HSI48RDY) != 0U)
 636:Drivers/STM32G0xx_HAL_Driver/Src/stm32g0xx_hal_rcc.c ****       {
 637:Drivers/STM32G0xx_HAL_Driver/Src/stm32g0xx_hal_rcc.c ****         if ((HAL_GetTick() - tickstart) > HSI48_TIMEOUT_VALUE)
 638:Drivers/STM32G0xx_HAL_Driver/Src/stm32g0xx_hal_rcc.c ****         {
 639:Drivers/STM32G0xx_HAL_Driver/Src/stm32g0xx_hal_rcc.c ****           return HAL_TIMEOUT;
 640:Drivers/STM32G0xx_HAL_Driver/Src/stm32g0xx_hal_rcc.c ****         }
 641:Drivers/STM32G0xx_HAL_Driver/Src/stm32g0xx_hal_rcc.c ****       }
 642:Drivers/STM32G0xx_HAL_Driver/Src/stm32g0xx_hal_rcc.c ****     }
 643:Drivers/STM32G0xx_HAL_Driver/Src/stm32g0xx_hal_rcc.c ****   }
 644:Drivers/STM32G0xx_HAL_Driver/Src/stm32g0xx_hal_rcc.c **** #endif /* RCC_HSI48_SUPPORT */
 645:Drivers/STM32G0xx_HAL_Driver/Src/stm32g0xx_hal_rcc.c ****   /*-------------------------------- PLL Configuration -----------------------*/
 646:Drivers/STM32G0xx_HAL_Driver/Src/stm32g0xx_hal_rcc.c ****   /* Check the parameters */
 647:Drivers/STM32G0xx_HAL_Driver/Src/stm32g0xx_hal_rcc.c ****   assert_param(IS_RCC_PLL(RCC_OscInitStruct->PLL.PLLState));
 979              		.loc 1 647 3 is_stmt 1 view .LVU307
 648:Drivers/STM32G0xx_HAL_Driver/Src/stm32g0xx_hal_rcc.c **** 
 649:Drivers/STM32G0xx_HAL_Driver/Src/stm32g0xx_hal_rcc.c ****   if (RCC_OscInitStruct->PLL.PLLState != RCC_PLL_NONE)
 980              		.loc 1 649 3 view .LVU308
 981              		.loc 1 649 29 is_stmt 0 view .LVU309
 982 0348 E369     		ldr	r3, [r4, #28]
ARM GAS  C:\Users\tugru\AppData\Local\Temp\ccZeWSML.s 			page 32


 983              		.loc 1 649 6 view .LVU310
 984 034a 002B     		cmp	r3, #0
 985 034c 00D1     		bne	.LCB921
 986 034e 91E0     		b	.L88	@long jump
 987              	.LCB921:
 650:Drivers/STM32G0xx_HAL_Driver/Src/stm32g0xx_hal_rcc.c ****   {
 651:Drivers/STM32G0xx_HAL_Driver/Src/stm32g0xx_hal_rcc.c ****     /* Check if the PLL is used as system clock or not */
 652:Drivers/STM32G0xx_HAL_Driver/Src/stm32g0xx_hal_rcc.c ****     if (__HAL_RCC_GET_SYSCLK_SOURCE() != RCC_SYSCLKSOURCE_STATUS_PLLCLK)
 988              		.loc 1 652 5 is_stmt 1 view .LVU311
 989              		.loc 1 652 9 is_stmt 0 view .LVU312
 990 0350 4F4A     		ldr	r2, .L118
 991 0352 9168     		ldr	r1, [r2, #8]
 992 0354 3822     		movs	r2, #56
 993 0356 0A40     		ands	r2, r1
 994              		.loc 1 652 8 view .LVU313
 995 0358 102A     		cmp	r2, #16
 996 035a 5ED0     		beq	.L64
 653:Drivers/STM32G0xx_HAL_Driver/Src/stm32g0xx_hal_rcc.c ****     {
 654:Drivers/STM32G0xx_HAL_Driver/Src/stm32g0xx_hal_rcc.c ****       if (RCC_OscInitStruct->PLL.PLLState == RCC_PLL_ON)
 997              		.loc 1 654 7 is_stmt 1 view .LVU314
 998              		.loc 1 654 10 is_stmt 0 view .LVU315
 999 035c 022B     		cmp	r3, #2
 1000 035e 18D0     		beq	.L112
 655:Drivers/STM32G0xx_HAL_Driver/Src/stm32g0xx_hal_rcc.c ****       {
 656:Drivers/STM32G0xx_HAL_Driver/Src/stm32g0xx_hal_rcc.c ****         /* Check the parameters */
 657:Drivers/STM32G0xx_HAL_Driver/Src/stm32g0xx_hal_rcc.c ****         assert_param(IS_RCC_PLLSOURCE(RCC_OscInitStruct->PLL.PLLSource));
 658:Drivers/STM32G0xx_HAL_Driver/Src/stm32g0xx_hal_rcc.c ****         assert_param(IS_RCC_PLLM_VALUE(RCC_OscInitStruct->PLL.PLLM));
 659:Drivers/STM32G0xx_HAL_Driver/Src/stm32g0xx_hal_rcc.c ****         assert_param(IS_RCC_PLLN_VALUE(RCC_OscInitStruct->PLL.PLLN));
 660:Drivers/STM32G0xx_HAL_Driver/Src/stm32g0xx_hal_rcc.c ****         assert_param(IS_RCC_PLLP_VALUE(RCC_OscInitStruct->PLL.PLLP));
 661:Drivers/STM32G0xx_HAL_Driver/Src/stm32g0xx_hal_rcc.c **** #if defined(RCC_PLLQ_SUPPORT)
 662:Drivers/STM32G0xx_HAL_Driver/Src/stm32g0xx_hal_rcc.c ****         assert_param(IS_RCC_PLLQ_VALUE(RCC_OscInitStruct->PLL.PLLQ));
 663:Drivers/STM32G0xx_HAL_Driver/Src/stm32g0xx_hal_rcc.c **** #endif /* RCC_PLLQ_SUPPORT */
 664:Drivers/STM32G0xx_HAL_Driver/Src/stm32g0xx_hal_rcc.c ****         assert_param(IS_RCC_PLLR_VALUE(RCC_OscInitStruct->PLL.PLLR));
 665:Drivers/STM32G0xx_HAL_Driver/Src/stm32g0xx_hal_rcc.c **** 
 666:Drivers/STM32G0xx_HAL_Driver/Src/stm32g0xx_hal_rcc.c ****         /* Disable the main PLL. */
 667:Drivers/STM32G0xx_HAL_Driver/Src/stm32g0xx_hal_rcc.c ****         __HAL_RCC_PLL_DISABLE();
 668:Drivers/STM32G0xx_HAL_Driver/Src/stm32g0xx_hal_rcc.c **** 
 669:Drivers/STM32G0xx_HAL_Driver/Src/stm32g0xx_hal_rcc.c ****         /* Get Start Tick*/
 670:Drivers/STM32G0xx_HAL_Driver/Src/stm32g0xx_hal_rcc.c ****         tickstart = HAL_GetTick();
 671:Drivers/STM32G0xx_HAL_Driver/Src/stm32g0xx_hal_rcc.c **** 
 672:Drivers/STM32G0xx_HAL_Driver/Src/stm32g0xx_hal_rcc.c ****         /* Wait till PLL is ready */
 673:Drivers/STM32G0xx_HAL_Driver/Src/stm32g0xx_hal_rcc.c ****         while (READ_BIT(RCC->CR, RCC_CR_PLLRDY) != 0U)
 674:Drivers/STM32G0xx_HAL_Driver/Src/stm32g0xx_hal_rcc.c ****         {
 675:Drivers/STM32G0xx_HAL_Driver/Src/stm32g0xx_hal_rcc.c ****           if ((HAL_GetTick() - tickstart) > PLL_TIMEOUT_VALUE)
 676:Drivers/STM32G0xx_HAL_Driver/Src/stm32g0xx_hal_rcc.c ****           {
 677:Drivers/STM32G0xx_HAL_Driver/Src/stm32g0xx_hal_rcc.c ****             return HAL_TIMEOUT;
 678:Drivers/STM32G0xx_HAL_Driver/Src/stm32g0xx_hal_rcc.c ****           }
 679:Drivers/STM32G0xx_HAL_Driver/Src/stm32g0xx_hal_rcc.c ****         }
 680:Drivers/STM32G0xx_HAL_Driver/Src/stm32g0xx_hal_rcc.c **** 
 681:Drivers/STM32G0xx_HAL_Driver/Src/stm32g0xx_hal_rcc.c ****         /* Configure the main PLL clock source, multiplication and division factors. */
 682:Drivers/STM32G0xx_HAL_Driver/Src/stm32g0xx_hal_rcc.c **** #if defined(RCC_PLLQ_SUPPORT)
 683:Drivers/STM32G0xx_HAL_Driver/Src/stm32g0xx_hal_rcc.c ****         __HAL_RCC_PLL_CONFIG(RCC_OscInitStruct->PLL.PLLSource,
 684:Drivers/STM32G0xx_HAL_Driver/Src/stm32g0xx_hal_rcc.c ****                              RCC_OscInitStruct->PLL.PLLM,
 685:Drivers/STM32G0xx_HAL_Driver/Src/stm32g0xx_hal_rcc.c ****                              RCC_OscInitStruct->PLL.PLLN,
 686:Drivers/STM32G0xx_HAL_Driver/Src/stm32g0xx_hal_rcc.c ****                              RCC_OscInitStruct->PLL.PLLP,
 687:Drivers/STM32G0xx_HAL_Driver/Src/stm32g0xx_hal_rcc.c ****                              RCC_OscInitStruct->PLL.PLLQ,
 688:Drivers/STM32G0xx_HAL_Driver/Src/stm32g0xx_hal_rcc.c ****                              RCC_OscInitStruct->PLL.PLLR);
ARM GAS  C:\Users\tugru\AppData\Local\Temp\ccZeWSML.s 			page 33


 689:Drivers/STM32G0xx_HAL_Driver/Src/stm32g0xx_hal_rcc.c **** #else /* !RCC_PLLQ_SUPPORT */
 690:Drivers/STM32G0xx_HAL_Driver/Src/stm32g0xx_hal_rcc.c ****         __HAL_RCC_PLL_CONFIG(RCC_OscInitStruct->PLL.PLLSource,
 691:Drivers/STM32G0xx_HAL_Driver/Src/stm32g0xx_hal_rcc.c ****                              RCC_OscInitStruct->PLL.PLLM,
 692:Drivers/STM32G0xx_HAL_Driver/Src/stm32g0xx_hal_rcc.c ****                              RCC_OscInitStruct->PLL.PLLN,
 693:Drivers/STM32G0xx_HAL_Driver/Src/stm32g0xx_hal_rcc.c ****                              RCC_OscInitStruct->PLL.PLLP,
 694:Drivers/STM32G0xx_HAL_Driver/Src/stm32g0xx_hal_rcc.c ****                              RCC_OscInitStruct->PLL.PLLR);
 695:Drivers/STM32G0xx_HAL_Driver/Src/stm32g0xx_hal_rcc.c **** #endif /* RCC_PLLQ_SUPPORT */
 696:Drivers/STM32G0xx_HAL_Driver/Src/stm32g0xx_hal_rcc.c **** 
 697:Drivers/STM32G0xx_HAL_Driver/Src/stm32g0xx_hal_rcc.c ****         /* Enable the main PLL. */
 698:Drivers/STM32G0xx_HAL_Driver/Src/stm32g0xx_hal_rcc.c ****         __HAL_RCC_PLL_ENABLE();
 699:Drivers/STM32G0xx_HAL_Driver/Src/stm32g0xx_hal_rcc.c **** 
 700:Drivers/STM32G0xx_HAL_Driver/Src/stm32g0xx_hal_rcc.c ****         /* Enable PLLR Clock output. */
 701:Drivers/STM32G0xx_HAL_Driver/Src/stm32g0xx_hal_rcc.c ****         __HAL_RCC_PLLCLKOUT_ENABLE(RCC_PLLRCLK);
 702:Drivers/STM32G0xx_HAL_Driver/Src/stm32g0xx_hal_rcc.c **** 
 703:Drivers/STM32G0xx_HAL_Driver/Src/stm32g0xx_hal_rcc.c ****         /* Get Start Tick*/
 704:Drivers/STM32G0xx_HAL_Driver/Src/stm32g0xx_hal_rcc.c ****         tickstart = HAL_GetTick();
 705:Drivers/STM32G0xx_HAL_Driver/Src/stm32g0xx_hal_rcc.c **** 
 706:Drivers/STM32G0xx_HAL_Driver/Src/stm32g0xx_hal_rcc.c ****         /* Wait till PLL is ready */
 707:Drivers/STM32G0xx_HAL_Driver/Src/stm32g0xx_hal_rcc.c ****         while (READ_BIT(RCC->CR, RCC_CR_PLLRDY) == 0U)
 708:Drivers/STM32G0xx_HAL_Driver/Src/stm32g0xx_hal_rcc.c ****         {
 709:Drivers/STM32G0xx_HAL_Driver/Src/stm32g0xx_hal_rcc.c ****           if ((HAL_GetTick() - tickstart) > PLL_TIMEOUT_VALUE)
 710:Drivers/STM32G0xx_HAL_Driver/Src/stm32g0xx_hal_rcc.c ****           {
 711:Drivers/STM32G0xx_HAL_Driver/Src/stm32g0xx_hal_rcc.c ****             return HAL_TIMEOUT;
 712:Drivers/STM32G0xx_HAL_Driver/Src/stm32g0xx_hal_rcc.c ****           }
 713:Drivers/STM32G0xx_HAL_Driver/Src/stm32g0xx_hal_rcc.c ****         }
 714:Drivers/STM32G0xx_HAL_Driver/Src/stm32g0xx_hal_rcc.c ****       }
 715:Drivers/STM32G0xx_HAL_Driver/Src/stm32g0xx_hal_rcc.c ****       else
 716:Drivers/STM32G0xx_HAL_Driver/Src/stm32g0xx_hal_rcc.c ****       {
 717:Drivers/STM32G0xx_HAL_Driver/Src/stm32g0xx_hal_rcc.c ****         /* Disable the main PLL. */
 718:Drivers/STM32G0xx_HAL_Driver/Src/stm32g0xx_hal_rcc.c ****         __HAL_RCC_PLL_DISABLE();
 1001              		.loc 1 718 9 is_stmt 1 view .LVU316
 1002 0360 4B4A     		ldr	r2, .L118
 1003 0362 1368     		ldr	r3, [r2]
 1004 0364 4B49     		ldr	r1, .L118+4
 1005 0366 0B40     		ands	r3, r1
 1006 0368 1360     		str	r3, [r2]
 719:Drivers/STM32G0xx_HAL_Driver/Src/stm32g0xx_hal_rcc.c **** 
 720:Drivers/STM32G0xx_HAL_Driver/Src/stm32g0xx_hal_rcc.c ****         /* Get Start Tick*/
 721:Drivers/STM32G0xx_HAL_Driver/Src/stm32g0xx_hal_rcc.c ****         tickstart = HAL_GetTick();
 1007              		.loc 1 721 9 view .LVU317
 1008              		.loc 1 721 21 is_stmt 0 view .LVU318
 1009 036a FFF7FEFF 		bl	HAL_GetTick
 1010              	.LVL76:
 1011 036e 0400     		movs	r4, r0
 1012              	.LVL77:
 722:Drivers/STM32G0xx_HAL_Driver/Src/stm32g0xx_hal_rcc.c **** 
 723:Drivers/STM32G0xx_HAL_Driver/Src/stm32g0xx_hal_rcc.c ****         /* Wait till PLL is disabled */
 724:Drivers/STM32G0xx_HAL_Driver/Src/stm32g0xx_hal_rcc.c ****         while (READ_BIT(RCC->CR, RCC_CR_PLLRDY) != 0U)
 1013              		.loc 1 724 9 is_stmt 1 view .LVU319
 1014              	.L70:
 1015              		.loc 1 724 15 view .LVU320
 1016              		.loc 1 724 16 is_stmt 0 view .LVU321
 1017 0370 474B     		ldr	r3, .L118
 1018 0372 1B68     		ldr	r3, [r3]
 1019              		.loc 1 724 15 view .LVU322
 1020 0374 9B01     		lsls	r3, r3, #6
 1021 0376 49D5     		bpl	.L113
ARM GAS  C:\Users\tugru\AppData\Local\Temp\ccZeWSML.s 			page 34


 725:Drivers/STM32G0xx_HAL_Driver/Src/stm32g0xx_hal_rcc.c ****         {
 726:Drivers/STM32G0xx_HAL_Driver/Src/stm32g0xx_hal_rcc.c ****           if ((HAL_GetTick() - tickstart) > PLL_TIMEOUT_VALUE)
 1022              		.loc 1 726 11 is_stmt 1 view .LVU323
 1023              		.loc 1 726 16 is_stmt 0 view .LVU324
 1024 0378 FFF7FEFF 		bl	HAL_GetTick
 1025              	.LVL78:
 1026              		.loc 1 726 30 view .LVU325
 1027 037c 001B     		subs	r0, r0, r4
 1028              		.loc 1 726 14 view .LVU326
 1029 037e 0228     		cmp	r0, #2
 1030 0380 F6D9     		bls	.L70
 727:Drivers/STM32G0xx_HAL_Driver/Src/stm32g0xx_hal_rcc.c ****           {
 728:Drivers/STM32G0xx_HAL_Driver/Src/stm32g0xx_hal_rcc.c ****             return HAL_TIMEOUT;
 1031              		.loc 1 728 20 view .LVU327
 1032 0382 0320     		movs	r0, #3
 1033 0384 6CE0     		b	.L18
 1034              	.LVL79:
 1035              	.L111:
 1036              	.LBB7:
 597:Drivers/STM32G0xx_HAL_Driver/Src/stm32g0xx_hal_rcc.c ****       }
 1037              		.loc 1 597 9 is_stmt 1 view .LVU328
 1038 0386 424A     		ldr	r2, .L118
 1039 0388 D36B     		ldr	r3, [r2, #60]
 1040 038a 4349     		ldr	r1, .L118+8
 1041 038c 0B40     		ands	r3, r1
 1042 038e D363     		str	r3, [r2, #60]
 1043 0390 DAE7     		b	.L49
 1044              	.LVL80:
 1045              	.L112:
 597:Drivers/STM32G0xx_HAL_Driver/Src/stm32g0xx_hal_rcc.c ****       }
 1046              		.loc 1 597 9 is_stmt 0 view .LVU329
 1047              	.LBE7:
 657:Drivers/STM32G0xx_HAL_Driver/Src/stm32g0xx_hal_rcc.c ****         assert_param(IS_RCC_PLLM_VALUE(RCC_OscInitStruct->PLL.PLLM));
 1048              		.loc 1 657 9 is_stmt 1 view .LVU330
 658:Drivers/STM32G0xx_HAL_Driver/Src/stm32g0xx_hal_rcc.c ****         assert_param(IS_RCC_PLLN_VALUE(RCC_OscInitStruct->PLL.PLLN));
 1049              		.loc 1 658 9 view .LVU331
 659:Drivers/STM32G0xx_HAL_Driver/Src/stm32g0xx_hal_rcc.c ****         assert_param(IS_RCC_PLLP_VALUE(RCC_OscInitStruct->PLL.PLLP));
 1050              		.loc 1 659 9 view .LVU332
 660:Drivers/STM32G0xx_HAL_Driver/Src/stm32g0xx_hal_rcc.c **** #if defined(RCC_PLLQ_SUPPORT)
 1051              		.loc 1 660 9 view .LVU333
 664:Drivers/STM32G0xx_HAL_Driver/Src/stm32g0xx_hal_rcc.c **** 
 1052              		.loc 1 664 9 view .LVU334
 667:Drivers/STM32G0xx_HAL_Driver/Src/stm32g0xx_hal_rcc.c **** 
 1053              		.loc 1 667 9 view .LVU335
 1054 0392 3F4A     		ldr	r2, .L118
 1055 0394 1368     		ldr	r3, [r2]
 1056 0396 3F49     		ldr	r1, .L118+4
 1057 0398 0B40     		ands	r3, r1
 1058 039a 1360     		str	r3, [r2]
 670:Drivers/STM32G0xx_HAL_Driver/Src/stm32g0xx_hal_rcc.c **** 
 1059              		.loc 1 670 9 view .LVU336
 670:Drivers/STM32G0xx_HAL_Driver/Src/stm32g0xx_hal_rcc.c **** 
 1060              		.loc 1 670 21 is_stmt 0 view .LVU337
 1061 039c FFF7FEFF 		bl	HAL_GetTick
 1062              	.LVL81:
 1063 03a0 0500     		movs	r5, r0
 1064              	.LVL82:
ARM GAS  C:\Users\tugru\AppData\Local\Temp\ccZeWSML.s 			page 35


 673:Drivers/STM32G0xx_HAL_Driver/Src/stm32g0xx_hal_rcc.c ****         {
 1065              		.loc 1 673 9 is_stmt 1 view .LVU338
 1066              	.L66:
 673:Drivers/STM32G0xx_HAL_Driver/Src/stm32g0xx_hal_rcc.c ****         {
 1067              		.loc 1 673 15 view .LVU339
 673:Drivers/STM32G0xx_HAL_Driver/Src/stm32g0xx_hal_rcc.c ****         {
 1068              		.loc 1 673 16 is_stmt 0 view .LVU340
 1069 03a2 3B4B     		ldr	r3, .L118
 1070 03a4 1B68     		ldr	r3, [r3]
 673:Drivers/STM32G0xx_HAL_Driver/Src/stm32g0xx_hal_rcc.c ****         {
 1071              		.loc 1 673 15 view .LVU341
 1072 03a6 9B01     		lsls	r3, r3, #6
 1073 03a8 06D5     		bpl	.L114
 675:Drivers/STM32G0xx_HAL_Driver/Src/stm32g0xx_hal_rcc.c ****           {
 1074              		.loc 1 675 11 is_stmt 1 view .LVU342
 675:Drivers/STM32G0xx_HAL_Driver/Src/stm32g0xx_hal_rcc.c ****           {
 1075              		.loc 1 675 16 is_stmt 0 view .LVU343
 1076 03aa FFF7FEFF 		bl	HAL_GetTick
 1077              	.LVL83:
 675:Drivers/STM32G0xx_HAL_Driver/Src/stm32g0xx_hal_rcc.c ****           {
 1078              		.loc 1 675 30 view .LVU344
 1079 03ae 401B     		subs	r0, r0, r5
 675:Drivers/STM32G0xx_HAL_Driver/Src/stm32g0xx_hal_rcc.c ****           {
 1080              		.loc 1 675 14 view .LVU345
 1081 03b0 0228     		cmp	r0, #2
 1082 03b2 F6D9     		bls	.L66
 677:Drivers/STM32G0xx_HAL_Driver/Src/stm32g0xx_hal_rcc.c ****           }
 1083              		.loc 1 677 20 view .LVU346
 1084 03b4 0320     		movs	r0, #3
 1085 03b6 53E0     		b	.L18
 1086              	.L114:
 690:Drivers/STM32G0xx_HAL_Driver/Src/stm32g0xx_hal_rcc.c ****                              RCC_OscInitStruct->PLL.PLLM,
 1087              		.loc 1 690 9 is_stmt 1 view .LVU347
 1088 03b8 354A     		ldr	r2, .L118
 1089 03ba D368     		ldr	r3, [r2, #12]
 1090 03bc 3749     		ldr	r1, .L118+12
 1091 03be 1940     		ands	r1, r3
 1092 03c0 236A     		ldr	r3, [r4, #32]
 1093 03c2 606A     		ldr	r0, [r4, #36]
 1094 03c4 0343     		orrs	r3, r0
 1095 03c6 A06A     		ldr	r0, [r4, #40]
 1096 03c8 0002     		lsls	r0, r0, #8
 1097 03ca 0343     		orrs	r3, r0
 1098 03cc E06A     		ldr	r0, [r4, #44]
 1099 03ce 0343     		orrs	r3, r0
 1100 03d0 206B     		ldr	r0, [r4, #48]
 1101 03d2 0343     		orrs	r3, r0
 1102 03d4 0B43     		orrs	r3, r1
 1103 03d6 D360     		str	r3, [r2, #12]
 698:Drivers/STM32G0xx_HAL_Driver/Src/stm32g0xx_hal_rcc.c **** 
 1104              		.loc 1 698 9 view .LVU348
 1105 03d8 1168     		ldr	r1, [r2]
 1106 03da 8023     		movs	r3, #128
 1107 03dc 5B04     		lsls	r3, r3, #17
 1108 03de 0B43     		orrs	r3, r1
 1109 03e0 1360     		str	r3, [r2]
 701:Drivers/STM32G0xx_HAL_Driver/Src/stm32g0xx_hal_rcc.c **** 
ARM GAS  C:\Users\tugru\AppData\Local\Temp\ccZeWSML.s 			page 36


 1110              		.loc 1 701 9 view .LVU349
 1111 03e2 D168     		ldr	r1, [r2, #12]
 1112 03e4 8023     		movs	r3, #128
 1113 03e6 5B05     		lsls	r3, r3, #21
 1114 03e8 0B43     		orrs	r3, r1
 1115 03ea D360     		str	r3, [r2, #12]
 704:Drivers/STM32G0xx_HAL_Driver/Src/stm32g0xx_hal_rcc.c **** 
 1116              		.loc 1 704 9 view .LVU350
 704:Drivers/STM32G0xx_HAL_Driver/Src/stm32g0xx_hal_rcc.c **** 
 1117              		.loc 1 704 21 is_stmt 0 view .LVU351
 1118 03ec FFF7FEFF 		bl	HAL_GetTick
 1119              	.LVL84:
 1120 03f0 0400     		movs	r4, r0
 1121              	.LVL85:
 707:Drivers/STM32G0xx_HAL_Driver/Src/stm32g0xx_hal_rcc.c ****         {
 1122              		.loc 1 707 9 is_stmt 1 view .LVU352
 1123              	.L68:
 707:Drivers/STM32G0xx_HAL_Driver/Src/stm32g0xx_hal_rcc.c ****         {
 1124              		.loc 1 707 15 view .LVU353
 707:Drivers/STM32G0xx_HAL_Driver/Src/stm32g0xx_hal_rcc.c ****         {
 1125              		.loc 1 707 16 is_stmt 0 view .LVU354
 1126 03f2 274B     		ldr	r3, .L118
 1127 03f4 1B68     		ldr	r3, [r3]
 707:Drivers/STM32G0xx_HAL_Driver/Src/stm32g0xx_hal_rcc.c ****         {
 1128              		.loc 1 707 15 view .LVU355
 1129 03f6 9B01     		lsls	r3, r3, #6
 1130 03f8 06D4     		bmi	.L115
 709:Drivers/STM32G0xx_HAL_Driver/Src/stm32g0xx_hal_rcc.c ****           {
 1131              		.loc 1 709 11 is_stmt 1 view .LVU356
 709:Drivers/STM32G0xx_HAL_Driver/Src/stm32g0xx_hal_rcc.c ****           {
 1132              		.loc 1 709 16 is_stmt 0 view .LVU357
 1133 03fa FFF7FEFF 		bl	HAL_GetTick
 1134              	.LVL86:
 709:Drivers/STM32G0xx_HAL_Driver/Src/stm32g0xx_hal_rcc.c ****           {
 1135              		.loc 1 709 30 view .LVU358
 1136 03fe 001B     		subs	r0, r0, r4
 709:Drivers/STM32G0xx_HAL_Driver/Src/stm32g0xx_hal_rcc.c ****           {
 1137              		.loc 1 709 14 view .LVU359
 1138 0400 0228     		cmp	r0, #2
 1139 0402 F6D9     		bls	.L68
 711:Drivers/STM32G0xx_HAL_Driver/Src/stm32g0xx_hal_rcc.c ****           }
 1140              		.loc 1 711 20 view .LVU360
 1141 0404 0320     		movs	r0, #3
 1142 0406 2BE0     		b	.L18
 1143              	.L115:
 729:Drivers/STM32G0xx_HAL_Driver/Src/stm32g0xx_hal_rcc.c ****           }
 730:Drivers/STM32G0xx_HAL_Driver/Src/stm32g0xx_hal_rcc.c ****         }
 731:Drivers/STM32G0xx_HAL_Driver/Src/stm32g0xx_hal_rcc.c ****         /* Unselect main PLL clock source and disable main PLL outputs to save power */
 732:Drivers/STM32G0xx_HAL_Driver/Src/stm32g0xx_hal_rcc.c **** #if defined(RCC_PLLQ_SUPPORT)
 733:Drivers/STM32G0xx_HAL_Driver/Src/stm32g0xx_hal_rcc.c ****         RCC->PLLCFGR &= ~(RCC_PLLCFGR_PLLSRC | RCC_PLLCFGR_PLLPEN | RCC_PLLCFGR_PLLQEN | RCC_PLLCFG
 734:Drivers/STM32G0xx_HAL_Driver/Src/stm32g0xx_hal_rcc.c **** #else
 735:Drivers/STM32G0xx_HAL_Driver/Src/stm32g0xx_hal_rcc.c ****         RCC->PLLCFGR &= ~(RCC_PLLCFGR_PLLSRC | RCC_PLLCFGR_PLLPEN | RCC_PLLCFGR_PLLREN);
 736:Drivers/STM32G0xx_HAL_Driver/Src/stm32g0xx_hal_rcc.c **** #endif /* RCC_PLLQ_SUPPORT */
 737:Drivers/STM32G0xx_HAL_Driver/Src/stm32g0xx_hal_rcc.c ****       }
 738:Drivers/STM32G0xx_HAL_Driver/Src/stm32g0xx_hal_rcc.c ****     }
 739:Drivers/STM32G0xx_HAL_Driver/Src/stm32g0xx_hal_rcc.c ****     else
 740:Drivers/STM32G0xx_HAL_Driver/Src/stm32g0xx_hal_rcc.c ****     {
ARM GAS  C:\Users\tugru\AppData\Local\Temp\ccZeWSML.s 			page 37


 741:Drivers/STM32G0xx_HAL_Driver/Src/stm32g0xx_hal_rcc.c ****       /* Check if there is a request to disable the PLL used as System clock source */
 742:Drivers/STM32G0xx_HAL_Driver/Src/stm32g0xx_hal_rcc.c ****       if ((RCC_OscInitStruct->PLL.PLLState) == RCC_PLL_OFF)
 743:Drivers/STM32G0xx_HAL_Driver/Src/stm32g0xx_hal_rcc.c ****       {
 744:Drivers/STM32G0xx_HAL_Driver/Src/stm32g0xx_hal_rcc.c ****         return HAL_ERROR;
 745:Drivers/STM32G0xx_HAL_Driver/Src/stm32g0xx_hal_rcc.c ****       }
 746:Drivers/STM32G0xx_HAL_Driver/Src/stm32g0xx_hal_rcc.c ****       else
 747:Drivers/STM32G0xx_HAL_Driver/Src/stm32g0xx_hal_rcc.c ****       {
 748:Drivers/STM32G0xx_HAL_Driver/Src/stm32g0xx_hal_rcc.c ****         /* Do not return HAL_ERROR if request repeats the current configuration */
 749:Drivers/STM32G0xx_HAL_Driver/Src/stm32g0xx_hal_rcc.c ****         temp_pllckcfg = RCC->PLLCFGR;
 750:Drivers/STM32G0xx_HAL_Driver/Src/stm32g0xx_hal_rcc.c ****         if ((READ_BIT(temp_pllckcfg, RCC_PLLCFGR_PLLSRC) != RCC_OscInitStruct->PLL.PLLSource) ||
 751:Drivers/STM32G0xx_HAL_Driver/Src/stm32g0xx_hal_rcc.c ****             (READ_BIT(temp_pllckcfg, RCC_PLLCFGR_PLLM) != RCC_OscInitStruct->PLL.PLLM) ||
 752:Drivers/STM32G0xx_HAL_Driver/Src/stm32g0xx_hal_rcc.c ****             (READ_BIT(temp_pllckcfg, RCC_PLLCFGR_PLLN) != (RCC_OscInitStruct->PLL.PLLN << RCC_PLLCF
 753:Drivers/STM32G0xx_HAL_Driver/Src/stm32g0xx_hal_rcc.c ****             (READ_BIT(temp_pllckcfg, RCC_PLLCFGR_PLLP) != RCC_OscInitStruct->PLL.PLLP) ||
 754:Drivers/STM32G0xx_HAL_Driver/Src/stm32g0xx_hal_rcc.c **** #if defined (RCC_PLLQ_SUPPORT)
 755:Drivers/STM32G0xx_HAL_Driver/Src/stm32g0xx_hal_rcc.c ****             (READ_BIT(temp_pllckcfg, RCC_PLLCFGR_PLLQ) != RCC_OscInitStruct->PLL.PLLQ) ||
 756:Drivers/STM32G0xx_HAL_Driver/Src/stm32g0xx_hal_rcc.c **** #endif /* RCC_PLLQ_SUPPORT */
 757:Drivers/STM32G0xx_HAL_Driver/Src/stm32g0xx_hal_rcc.c ****             (READ_BIT(temp_pllckcfg, RCC_PLLCFGR_PLLR) != RCC_OscInitStruct->PLL.PLLR))
 758:Drivers/STM32G0xx_HAL_Driver/Src/stm32g0xx_hal_rcc.c ****         {
 759:Drivers/STM32G0xx_HAL_Driver/Src/stm32g0xx_hal_rcc.c ****           return HAL_ERROR;
 760:Drivers/STM32G0xx_HAL_Driver/Src/stm32g0xx_hal_rcc.c ****         }
 761:Drivers/STM32G0xx_HAL_Driver/Src/stm32g0xx_hal_rcc.c ****       }
 762:Drivers/STM32G0xx_HAL_Driver/Src/stm32g0xx_hal_rcc.c ****     }
 763:Drivers/STM32G0xx_HAL_Driver/Src/stm32g0xx_hal_rcc.c ****   }
 764:Drivers/STM32G0xx_HAL_Driver/Src/stm32g0xx_hal_rcc.c ****   return HAL_OK;
 1144              		.loc 1 764 10 view .LVU361
 1145 0408 0020     		movs	r0, #0
 1146 040a 29E0     		b	.L18
 1147              	.L113:
 735:Drivers/STM32G0xx_HAL_Driver/Src/stm32g0xx_hal_rcc.c **** #endif /* RCC_PLLQ_SUPPORT */
 1148              		.loc 1 735 9 is_stmt 1 view .LVU362
 735:Drivers/STM32G0xx_HAL_Driver/Src/stm32g0xx_hal_rcc.c **** #endif /* RCC_PLLQ_SUPPORT */
 1149              		.loc 1 735 22 is_stmt 0 view .LVU363
 1150 040c 204A     		ldr	r2, .L118
 1151 040e D368     		ldr	r3, [r2, #12]
 1152 0410 2349     		ldr	r1, .L118+16
 1153 0412 0B40     		ands	r3, r1
 1154 0414 D360     		str	r3, [r2, #12]
 1155              		.loc 1 764 10 view .LVU364
 1156 0416 0020     		movs	r0, #0
 1157 0418 22E0     		b	.L18
 1158              	.LVL87:
 1159              	.L64:
 742:Drivers/STM32G0xx_HAL_Driver/Src/stm32g0xx_hal_rcc.c ****       {
 1160              		.loc 1 742 7 is_stmt 1 view .LVU365
 742:Drivers/STM32G0xx_HAL_Driver/Src/stm32g0xx_hal_rcc.c ****       {
 1161              		.loc 1 742 10 is_stmt 0 view .LVU366
 1162 041a 012B     		cmp	r3, #1
 1163 041c 2CD0     		beq	.L92
 749:Drivers/STM32G0xx_HAL_Driver/Src/stm32g0xx_hal_rcc.c ****         if ((READ_BIT(temp_pllckcfg, RCC_PLLCFGR_PLLSRC) != RCC_OscInitStruct->PLL.PLLSource) ||
 1164              		.loc 1 749 9 is_stmt 1 view .LVU367
 749:Drivers/STM32G0xx_HAL_Driver/Src/stm32g0xx_hal_rcc.c ****         if ((READ_BIT(temp_pllckcfg, RCC_PLLCFGR_PLLSRC) != RCC_OscInitStruct->PLL.PLLSource) ||
 1165              		.loc 1 749 23 is_stmt 0 view .LVU368
 1166 041e 1C4B     		ldr	r3, .L118
 1167 0420 DA68     		ldr	r2, [r3, #12]
 1168              	.LVL88:
 750:Drivers/STM32G0xx_HAL_Driver/Src/stm32g0xx_hal_rcc.c ****             (READ_BIT(temp_pllckcfg, RCC_PLLCFGR_PLLM) != RCC_OscInitStruct->PLL.PLLM) ||
 1169              		.loc 1 750 9 is_stmt 1 view .LVU369
ARM GAS  C:\Users\tugru\AppData\Local\Temp\ccZeWSML.s 			page 38


 750:Drivers/STM32G0xx_HAL_Driver/Src/stm32g0xx_hal_rcc.c ****             (READ_BIT(temp_pllckcfg, RCC_PLLCFGR_PLLM) != RCC_OscInitStruct->PLL.PLLM) ||
 1170              		.loc 1 750 14 is_stmt 0 view .LVU370
 1171 0422 0323     		movs	r3, #3
 1172 0424 1340     		ands	r3, r2
 750:Drivers/STM32G0xx_HAL_Driver/Src/stm32g0xx_hal_rcc.c ****             (READ_BIT(temp_pllckcfg, RCC_PLLCFGR_PLLM) != RCC_OscInitStruct->PLL.PLLM) ||
 1173              		.loc 1 750 12 view .LVU371
 1174 0426 216A     		ldr	r1, [r4, #32]
 1175 0428 8B42     		cmp	r3, r1
 1176 042a 27D1     		bne	.L93
 751:Drivers/STM32G0xx_HAL_Driver/Src/stm32g0xx_hal_rcc.c ****             (READ_BIT(temp_pllckcfg, RCC_PLLCFGR_PLLN) != (RCC_OscInitStruct->PLL.PLLN << RCC_PLLCF
 1177              		.loc 1 751 14 discriminator 1 view .LVU372
 1178 042c 7023     		movs	r3, #112
 1179 042e 1340     		ands	r3, r2
 750:Drivers/STM32G0xx_HAL_Driver/Src/stm32g0xx_hal_rcc.c ****             (READ_BIT(temp_pllckcfg, RCC_PLLCFGR_PLLM) != RCC_OscInitStruct->PLL.PLLM) ||
 1180              		.loc 1 750 95 discriminator 1 view .LVU373
 1181 0430 616A     		ldr	r1, [r4, #36]
 1182 0432 8B42     		cmp	r3, r1
 1183 0434 24D1     		bne	.L94
 752:Drivers/STM32G0xx_HAL_Driver/Src/stm32g0xx_hal_rcc.c ****             (READ_BIT(temp_pllckcfg, RCC_PLLCFGR_PLLP) != RCC_OscInitStruct->PLL.PLLP) ||
 1184              		.loc 1 752 14 view .LVU374
 1185 0436 FE21     		movs	r1, #254
 1186 0438 C901     		lsls	r1, r1, #7
 1187 043a 1140     		ands	r1, r2
 752:Drivers/STM32G0xx_HAL_Driver/Src/stm32g0xx_hal_rcc.c ****             (READ_BIT(temp_pllckcfg, RCC_PLLCFGR_PLLP) != RCC_OscInitStruct->PLL.PLLP) ||
 1188              		.loc 1 752 88 view .LVU375
 1189 043c A36A     		ldr	r3, [r4, #40]
 1190 043e 1B02     		lsls	r3, r3, #8
 751:Drivers/STM32G0xx_HAL_Driver/Src/stm32g0xx_hal_rcc.c ****             (READ_BIT(temp_pllckcfg, RCC_PLLCFGR_PLLN) != (RCC_OscInitStruct->PLL.PLLN << RCC_PLLCF
 1191              		.loc 1 751 88 view .LVU376
 1192 0440 9942     		cmp	r1, r3
 1193 0442 1FD1     		bne	.L95
 753:Drivers/STM32G0xx_HAL_Driver/Src/stm32g0xx_hal_rcc.c **** #if defined (RCC_PLLQ_SUPPORT)
 1194              		.loc 1 753 14 view .LVU377
 1195 0444 F823     		movs	r3, #248
 1196 0446 9B03     		lsls	r3, r3, #14
 1197 0448 1340     		ands	r3, r2
 752:Drivers/STM32G0xx_HAL_Driver/Src/stm32g0xx_hal_rcc.c ****             (READ_BIT(temp_pllckcfg, RCC_PLLCFGR_PLLP) != RCC_OscInitStruct->PLL.PLLP) ||
 1198              		.loc 1 752 114 view .LVU378
 1199 044a E16A     		ldr	r1, [r4, #44]
 1200 044c 8B42     		cmp	r3, r1
 1201 044e 1BD1     		bne	.L96
 757:Drivers/STM32G0xx_HAL_Driver/Src/stm32g0xx_hal_rcc.c ****         {
 1202              		.loc 1 757 14 view .LVU379
 1203 0450 520F     		lsrs	r2, r2, #29
 1204              	.LVL89:
 757:Drivers/STM32G0xx_HAL_Driver/Src/stm32g0xx_hal_rcc.c ****         {
 1205              		.loc 1 757 14 view .LVU380
 1206 0452 5207     		lsls	r2, r2, #29
 757:Drivers/STM32G0xx_HAL_Driver/Src/stm32g0xx_hal_rcc.c ****         {
 1207              		.loc 1 757 81 view .LVU381
 1208 0454 236B     		ldr	r3, [r4, #48]
 753:Drivers/STM32G0xx_HAL_Driver/Src/stm32g0xx_hal_rcc.c **** #if defined (RCC_PLLQ_SUPPORT)
 1209              		.loc 1 753 88 view .LVU382
 1210 0456 9A42     		cmp	r2, r3
 1211 0458 18D1     		bne	.L97
 1212              		.loc 1 764 10 view .LVU383
 1213 045a 0020     		movs	r0, #0
ARM GAS  C:\Users\tugru\AppData\Local\Temp\ccZeWSML.s 			page 39


 1214 045c 00E0     		b	.L18
 1215              	.LVL90:
 1216              	.L72:
 318:Drivers/STM32G0xx_HAL_Driver/Src/stm32g0xx_hal_rcc.c ****   }
 1217              		.loc 1 318 12 view .LVU384
 1218 045e 0120     		movs	r0, #1
 1219              	.LVL91:
 1220              	.L18:
 765:Drivers/STM32G0xx_HAL_Driver/Src/stm32g0xx_hal_rcc.c **** }
 1221              		.loc 1 765 1 view .LVU385
 1222 0460 02B0     		add	sp, sp, #8
 1223              		@ sp needed
 1224 0462 70BD     		pop	{r4, r5, r6, pc}
 1225              	.LVL92:
 1226              	.L101:
 339:Drivers/STM32G0xx_HAL_Driver/Src/stm32g0xx_hal_rcc.c ****       }
 1227              		.loc 1 339 16 view .LVU386
 1228 0464 0120     		movs	r0, #1
 1229              	.LVL93:
 339:Drivers/STM32G0xx_HAL_Driver/Src/stm32g0xx_hal_rcc.c ****       }
 1230              		.loc 1 339 16 view .LVU387
 1231 0466 FBE7     		b	.L18
 1232              	.LVL94:
 1233              	.L76:
 395:Drivers/STM32G0xx_HAL_Driver/Src/stm32g0xx_hal_rcc.c ****       }
 1234              		.loc 1 395 16 view .LVU388
 1235 0468 0120     		movs	r0, #1
 1236 046a F9E7     		b	.L18
 1237              	.LVL95:
 1238              	.L103:
 415:Drivers/STM32G0xx_HAL_Driver/Src/stm32g0xx_hal_rcc.c ****         }
 1239              		.loc 1 415 18 view .LVU389
 1240 046c 0120     		movs	r0, #1
 1241 046e F7E7     		b	.L18
 1242              	.L106:
 476:Drivers/STM32G0xx_HAL_Driver/Src/stm32g0xx_hal_rcc.c ****       }
 1243              		.loc 1 476 16 view .LVU390
 1244 0470 0120     		movs	r0, #1
 1245 0472 F5E7     		b	.L18
 1246              	.L88:
 764:Drivers/STM32G0xx_HAL_Driver/Src/stm32g0xx_hal_rcc.c **** }
 1247              		.loc 1 764 10 view .LVU391
 1248 0474 0020     		movs	r0, #0
 1249 0476 F3E7     		b	.L18
 1250              	.L92:
 744:Drivers/STM32G0xx_HAL_Driver/Src/stm32g0xx_hal_rcc.c ****       }
 1251              		.loc 1 744 16 view .LVU392
 1252 0478 0120     		movs	r0, #1
 1253 047a F1E7     		b	.L18
 1254              	.LVL96:
 1255              	.L93:
 759:Drivers/STM32G0xx_HAL_Driver/Src/stm32g0xx_hal_rcc.c ****         }
 1256              		.loc 1 759 18 view .LVU393
 1257 047c 0120     		movs	r0, #1
 1258 047e EFE7     		b	.L18
 1259              	.L94:
 1260 0480 0120     		movs	r0, #1
ARM GAS  C:\Users\tugru\AppData\Local\Temp\ccZeWSML.s 			page 40


 1261 0482 EDE7     		b	.L18
 1262              	.L95:
 1263 0484 0120     		movs	r0, #1
 1264 0486 EBE7     		b	.L18
 1265              	.L96:
 1266 0488 0120     		movs	r0, #1
 1267 048a E9E7     		b	.L18
 1268              	.LVL97:
 1269              	.L97:
 759:Drivers/STM32G0xx_HAL_Driver/Src/stm32g0xx_hal_rcc.c ****         }
 1270              		.loc 1 759 18 view .LVU394
 1271 048c 0120     		movs	r0, #1
 1272 048e E7E7     		b	.L18
 1273              	.L119:
 1274              		.align	2
 1275              	.L118:
 1276 0490 00100240 		.word	1073876992
 1277 0494 FFFFFFFE 		.word	-16777217
 1278 0498 FFFFFFEF 		.word	-268435457
 1279 049c 8C80C11F 		.word	532775052
 1280 04a0 FCFFFEEF 		.word	-268500996
 1281              		.cfi_endproc
 1282              	.LFE311:
 1284              		.section	.text.HAL_RCC_MCOConfig,"ax",%progbits
 1285              		.align	1
 1286              		.global	HAL_RCC_MCOConfig
 1287              		.syntax unified
 1288              		.code	16
 1289              		.thumb_func
 1291              	HAL_RCC_MCOConfig:
 1292              	.LVL98:
 1293              	.LFB313:
 766:Drivers/STM32G0xx_HAL_Driver/Src/stm32g0xx_hal_rcc.c **** 
 767:Drivers/STM32G0xx_HAL_Driver/Src/stm32g0xx_hal_rcc.c **** /**
 768:Drivers/STM32G0xx_HAL_Driver/Src/stm32g0xx_hal_rcc.c ****   * @brief  Initialize the CPU, AHB and APB buses clocks according to the specified
 769:Drivers/STM32G0xx_HAL_Driver/Src/stm32g0xx_hal_rcc.c ****   *         parameters in the RCC_ClkInitStruct.
 770:Drivers/STM32G0xx_HAL_Driver/Src/stm32g0xx_hal_rcc.c ****   * @param  RCC_ClkInitStruct  pointer to a @ref RCC_ClkInitTypeDef structure that
 771:Drivers/STM32G0xx_HAL_Driver/Src/stm32g0xx_hal_rcc.c ****   *         contains the configuration information for the RCC peripheral.
 772:Drivers/STM32G0xx_HAL_Driver/Src/stm32g0xx_hal_rcc.c ****   * @param  FLatency  FLASH Latency
 773:Drivers/STM32G0xx_HAL_Driver/Src/stm32g0xx_hal_rcc.c ****   *          This parameter can be one of the following values:
 774:Drivers/STM32G0xx_HAL_Driver/Src/stm32g0xx_hal_rcc.c ****   *            @arg FLASH_LATENCY_0   FLASH 0 Latency cycle
 775:Drivers/STM32G0xx_HAL_Driver/Src/stm32g0xx_hal_rcc.c ****   *            @arg FLASH_LATENCY_1   FLASH 1 Latency cycle
 776:Drivers/STM32G0xx_HAL_Driver/Src/stm32g0xx_hal_rcc.c ****   *
 777:Drivers/STM32G0xx_HAL_Driver/Src/stm32g0xx_hal_rcc.c ****   * @note   The SystemCoreClock CMSIS variable is used to store System Clock Frequency
 778:Drivers/STM32G0xx_HAL_Driver/Src/stm32g0xx_hal_rcc.c ****   *         and updated by @ref HAL_RCC_GetHCLKFreq() function called within this function
 779:Drivers/STM32G0xx_HAL_Driver/Src/stm32g0xx_hal_rcc.c ****   *
 780:Drivers/STM32G0xx_HAL_Driver/Src/stm32g0xx_hal_rcc.c ****   * @note   The HSI is used by default as system clock source after
 781:Drivers/STM32G0xx_HAL_Driver/Src/stm32g0xx_hal_rcc.c ****   *         startup from Reset, wake-up from STANDBY mode. After restart from Reset,
 782:Drivers/STM32G0xx_HAL_Driver/Src/stm32g0xx_hal_rcc.c ****   *         the HSI frequency is set to 8 Mhz, then it reaches its default value 16 MHz.
 783:Drivers/STM32G0xx_HAL_Driver/Src/stm32g0xx_hal_rcc.c ****   *
 784:Drivers/STM32G0xx_HAL_Driver/Src/stm32g0xx_hal_rcc.c ****   * @note   The HSI can be selected as system clock source after
 785:Drivers/STM32G0xx_HAL_Driver/Src/stm32g0xx_hal_rcc.c ****   *         from STOP modes or in case of failure of the HSE used directly or indirectly
 786:Drivers/STM32G0xx_HAL_Driver/Src/stm32g0xx_hal_rcc.c ****   *         as system clock (if the Clock Security System CSS is enabled).
 787:Drivers/STM32G0xx_HAL_Driver/Src/stm32g0xx_hal_rcc.c ****   *
 788:Drivers/STM32G0xx_HAL_Driver/Src/stm32g0xx_hal_rcc.c ****   * @note   The LSI can be selected as system clock source after
 789:Drivers/STM32G0xx_HAL_Driver/Src/stm32g0xx_hal_rcc.c ****   *         in case of failure of the LSE used directly or indirectly
 790:Drivers/STM32G0xx_HAL_Driver/Src/stm32g0xx_hal_rcc.c ****   *         as system clock (if the Clock Security System LSECSS is enabled).
ARM GAS  C:\Users\tugru\AppData\Local\Temp\ccZeWSML.s 			page 41


 791:Drivers/STM32G0xx_HAL_Driver/Src/stm32g0xx_hal_rcc.c ****   *
 792:Drivers/STM32G0xx_HAL_Driver/Src/stm32g0xx_hal_rcc.c ****   * @note   A switch from one clock source to another occurs only if the target
 793:Drivers/STM32G0xx_HAL_Driver/Src/stm32g0xx_hal_rcc.c ****   *         clock source is ready (clock stable after startup delay or PLL locked).
 794:Drivers/STM32G0xx_HAL_Driver/Src/stm32g0xx_hal_rcc.c ****   *         If a clock source which is not yet ready is selected, the switch will
 795:Drivers/STM32G0xx_HAL_Driver/Src/stm32g0xx_hal_rcc.c ****   *         occur when the clock source is ready.
 796:Drivers/STM32G0xx_HAL_Driver/Src/stm32g0xx_hal_rcc.c ****   *
 797:Drivers/STM32G0xx_HAL_Driver/Src/stm32g0xx_hal_rcc.c ****   * @note   You can use @ref HAL_RCC_GetClockConfig() function to know which clock is
 798:Drivers/STM32G0xx_HAL_Driver/Src/stm32g0xx_hal_rcc.c ****   *         currently used as system clock source.
 799:Drivers/STM32G0xx_HAL_Driver/Src/stm32g0xx_hal_rcc.c ****   *
 800:Drivers/STM32G0xx_HAL_Driver/Src/stm32g0xx_hal_rcc.c ****   * @note   Depending on the device voltage range, the software has to set correctly
 801:Drivers/STM32G0xx_HAL_Driver/Src/stm32g0xx_hal_rcc.c ****   *         HPRE[3:0] bits to ensure that HCLK not exceed the maximum allowed frequency
 802:Drivers/STM32G0xx_HAL_Driver/Src/stm32g0xx_hal_rcc.c ****   *         (for more details refer to section above "Initialization/de-initialization functions")
 803:Drivers/STM32G0xx_HAL_Driver/Src/stm32g0xx_hal_rcc.c ****   * @retval None
 804:Drivers/STM32G0xx_HAL_Driver/Src/stm32g0xx_hal_rcc.c ****   */
 805:Drivers/STM32G0xx_HAL_Driver/Src/stm32g0xx_hal_rcc.c **** HAL_StatusTypeDef HAL_RCC_ClockConfig(RCC_ClkInitTypeDef  *RCC_ClkInitStruct, uint32_t FLatency)
 806:Drivers/STM32G0xx_HAL_Driver/Src/stm32g0xx_hal_rcc.c **** {
 807:Drivers/STM32G0xx_HAL_Driver/Src/stm32g0xx_hal_rcc.c ****   uint32_t tickstart;
 808:Drivers/STM32G0xx_HAL_Driver/Src/stm32g0xx_hal_rcc.c **** 
 809:Drivers/STM32G0xx_HAL_Driver/Src/stm32g0xx_hal_rcc.c ****   /* Check Null pointer */
 810:Drivers/STM32G0xx_HAL_Driver/Src/stm32g0xx_hal_rcc.c ****   if (RCC_ClkInitStruct == NULL)
 811:Drivers/STM32G0xx_HAL_Driver/Src/stm32g0xx_hal_rcc.c ****   {
 812:Drivers/STM32G0xx_HAL_Driver/Src/stm32g0xx_hal_rcc.c ****     return HAL_ERROR;
 813:Drivers/STM32G0xx_HAL_Driver/Src/stm32g0xx_hal_rcc.c ****   }
 814:Drivers/STM32G0xx_HAL_Driver/Src/stm32g0xx_hal_rcc.c **** 
 815:Drivers/STM32G0xx_HAL_Driver/Src/stm32g0xx_hal_rcc.c ****   /* Check the parameters */
 816:Drivers/STM32G0xx_HAL_Driver/Src/stm32g0xx_hal_rcc.c ****   assert_param(IS_RCC_CLOCKTYPE(RCC_ClkInitStruct->ClockType));
 817:Drivers/STM32G0xx_HAL_Driver/Src/stm32g0xx_hal_rcc.c ****   assert_param(IS_FLASH_LATENCY(FLatency));
 818:Drivers/STM32G0xx_HAL_Driver/Src/stm32g0xx_hal_rcc.c **** 
 819:Drivers/STM32G0xx_HAL_Driver/Src/stm32g0xx_hal_rcc.c ****   /* To correctly read data from FLASH memory, the number of wait states (LATENCY)
 820:Drivers/STM32G0xx_HAL_Driver/Src/stm32g0xx_hal_rcc.c ****     must be correctly programmed according to the frequency of the FLASH clock
 821:Drivers/STM32G0xx_HAL_Driver/Src/stm32g0xx_hal_rcc.c ****     (HCLK) and the supply voltage of the device. */
 822:Drivers/STM32G0xx_HAL_Driver/Src/stm32g0xx_hal_rcc.c **** 
 823:Drivers/STM32G0xx_HAL_Driver/Src/stm32g0xx_hal_rcc.c ****   /* Increasing the number of wait states because of higher CPU frequency */
 824:Drivers/STM32G0xx_HAL_Driver/Src/stm32g0xx_hal_rcc.c ****   if (FLatency > __HAL_FLASH_GET_LATENCY())
 825:Drivers/STM32G0xx_HAL_Driver/Src/stm32g0xx_hal_rcc.c ****   {
 826:Drivers/STM32G0xx_HAL_Driver/Src/stm32g0xx_hal_rcc.c ****     /* Program the new number of wait states to the LATENCY bits in the FLASH_ACR register */
 827:Drivers/STM32G0xx_HAL_Driver/Src/stm32g0xx_hal_rcc.c ****     __HAL_FLASH_SET_LATENCY(FLatency);
 828:Drivers/STM32G0xx_HAL_Driver/Src/stm32g0xx_hal_rcc.c **** 
 829:Drivers/STM32G0xx_HAL_Driver/Src/stm32g0xx_hal_rcc.c ****     /* Check that the new number of wait states is taken into account to access the Flash
 830:Drivers/STM32G0xx_HAL_Driver/Src/stm32g0xx_hal_rcc.c ****     memory by polling the FLASH_ACR register */
 831:Drivers/STM32G0xx_HAL_Driver/Src/stm32g0xx_hal_rcc.c ****     tickstart = HAL_GetTick();
 832:Drivers/STM32G0xx_HAL_Driver/Src/stm32g0xx_hal_rcc.c **** 
 833:Drivers/STM32G0xx_HAL_Driver/Src/stm32g0xx_hal_rcc.c ****     while ((FLASH->ACR & FLASH_ACR_LATENCY) != FLatency)
 834:Drivers/STM32G0xx_HAL_Driver/Src/stm32g0xx_hal_rcc.c ****     {
 835:Drivers/STM32G0xx_HAL_Driver/Src/stm32g0xx_hal_rcc.c ****       if ((HAL_GetTick() - tickstart) > CLOCKSWITCH_TIMEOUT_VALUE)
 836:Drivers/STM32G0xx_HAL_Driver/Src/stm32g0xx_hal_rcc.c ****       {
 837:Drivers/STM32G0xx_HAL_Driver/Src/stm32g0xx_hal_rcc.c ****         return HAL_TIMEOUT;
 838:Drivers/STM32G0xx_HAL_Driver/Src/stm32g0xx_hal_rcc.c ****       }
 839:Drivers/STM32G0xx_HAL_Driver/Src/stm32g0xx_hal_rcc.c ****     }
 840:Drivers/STM32G0xx_HAL_Driver/Src/stm32g0xx_hal_rcc.c ****   }
 841:Drivers/STM32G0xx_HAL_Driver/Src/stm32g0xx_hal_rcc.c **** 
 842:Drivers/STM32G0xx_HAL_Driver/Src/stm32g0xx_hal_rcc.c ****   /*-------------------------- HCLK Configuration --------------------------*/
 843:Drivers/STM32G0xx_HAL_Driver/Src/stm32g0xx_hal_rcc.c ****   if (((RCC_ClkInitStruct->ClockType) & RCC_CLOCKTYPE_HCLK) == RCC_CLOCKTYPE_HCLK)
 844:Drivers/STM32G0xx_HAL_Driver/Src/stm32g0xx_hal_rcc.c ****   {
 845:Drivers/STM32G0xx_HAL_Driver/Src/stm32g0xx_hal_rcc.c ****     /* Set the highest APB divider in order to ensure that we do not go through
 846:Drivers/STM32G0xx_HAL_Driver/Src/stm32g0xx_hal_rcc.c ****        a non-spec phase whatever we decrease or increase HCLK. */
 847:Drivers/STM32G0xx_HAL_Driver/Src/stm32g0xx_hal_rcc.c ****     if (((RCC_ClkInitStruct->ClockType) & RCC_CLOCKTYPE_PCLK1) == RCC_CLOCKTYPE_PCLK1)
ARM GAS  C:\Users\tugru\AppData\Local\Temp\ccZeWSML.s 			page 42


 848:Drivers/STM32G0xx_HAL_Driver/Src/stm32g0xx_hal_rcc.c ****     {
 849:Drivers/STM32G0xx_HAL_Driver/Src/stm32g0xx_hal_rcc.c ****       MODIFY_REG(RCC->CFGR, RCC_CFGR_PPRE, RCC_HCLK_DIV16);
 850:Drivers/STM32G0xx_HAL_Driver/Src/stm32g0xx_hal_rcc.c ****     }
 851:Drivers/STM32G0xx_HAL_Driver/Src/stm32g0xx_hal_rcc.c **** 
 852:Drivers/STM32G0xx_HAL_Driver/Src/stm32g0xx_hal_rcc.c ****     /* Set the new HCLK clock divider */
 853:Drivers/STM32G0xx_HAL_Driver/Src/stm32g0xx_hal_rcc.c ****     assert_param(IS_RCC_HCLK(RCC_ClkInitStruct->AHBCLKDivider));
 854:Drivers/STM32G0xx_HAL_Driver/Src/stm32g0xx_hal_rcc.c ****     MODIFY_REG(RCC->CFGR, RCC_CFGR_HPRE, RCC_ClkInitStruct->AHBCLKDivider);
 855:Drivers/STM32G0xx_HAL_Driver/Src/stm32g0xx_hal_rcc.c ****   }
 856:Drivers/STM32G0xx_HAL_Driver/Src/stm32g0xx_hal_rcc.c **** 
 857:Drivers/STM32G0xx_HAL_Driver/Src/stm32g0xx_hal_rcc.c ****   /*------------------------- SYSCLK Configuration ---------------------------*/
 858:Drivers/STM32G0xx_HAL_Driver/Src/stm32g0xx_hal_rcc.c ****   if (((RCC_ClkInitStruct->ClockType) & RCC_CLOCKTYPE_SYSCLK) == RCC_CLOCKTYPE_SYSCLK)
 859:Drivers/STM32G0xx_HAL_Driver/Src/stm32g0xx_hal_rcc.c ****   {
 860:Drivers/STM32G0xx_HAL_Driver/Src/stm32g0xx_hal_rcc.c ****     assert_param(IS_RCC_SYSCLKSOURCE(RCC_ClkInitStruct->SYSCLKSource));
 861:Drivers/STM32G0xx_HAL_Driver/Src/stm32g0xx_hal_rcc.c **** 
 862:Drivers/STM32G0xx_HAL_Driver/Src/stm32g0xx_hal_rcc.c ****     /* HSE is selected as System Clock Source */
 863:Drivers/STM32G0xx_HAL_Driver/Src/stm32g0xx_hal_rcc.c ****     if (RCC_ClkInitStruct->SYSCLKSource == RCC_SYSCLKSOURCE_HSE)
 864:Drivers/STM32G0xx_HAL_Driver/Src/stm32g0xx_hal_rcc.c ****     {
 865:Drivers/STM32G0xx_HAL_Driver/Src/stm32g0xx_hal_rcc.c ****       /* Check the HSE ready flag */
 866:Drivers/STM32G0xx_HAL_Driver/Src/stm32g0xx_hal_rcc.c ****       if (READ_BIT(RCC->CR, RCC_CR_HSERDY) == 0U)
 867:Drivers/STM32G0xx_HAL_Driver/Src/stm32g0xx_hal_rcc.c ****       {
 868:Drivers/STM32G0xx_HAL_Driver/Src/stm32g0xx_hal_rcc.c ****         return HAL_ERROR;
 869:Drivers/STM32G0xx_HAL_Driver/Src/stm32g0xx_hal_rcc.c ****       }
 870:Drivers/STM32G0xx_HAL_Driver/Src/stm32g0xx_hal_rcc.c ****     }
 871:Drivers/STM32G0xx_HAL_Driver/Src/stm32g0xx_hal_rcc.c ****     /* PLL is selected as System Clock Source */
 872:Drivers/STM32G0xx_HAL_Driver/Src/stm32g0xx_hal_rcc.c ****     else if (RCC_ClkInitStruct->SYSCLKSource == RCC_SYSCLKSOURCE_PLLCLK)
 873:Drivers/STM32G0xx_HAL_Driver/Src/stm32g0xx_hal_rcc.c ****     {
 874:Drivers/STM32G0xx_HAL_Driver/Src/stm32g0xx_hal_rcc.c ****       /* Check the PLL ready flag */
 875:Drivers/STM32G0xx_HAL_Driver/Src/stm32g0xx_hal_rcc.c ****       if (READ_BIT(RCC->CR, RCC_CR_PLLRDY) == 0U)
 876:Drivers/STM32G0xx_HAL_Driver/Src/stm32g0xx_hal_rcc.c ****       {
 877:Drivers/STM32G0xx_HAL_Driver/Src/stm32g0xx_hal_rcc.c ****         return HAL_ERROR;
 878:Drivers/STM32G0xx_HAL_Driver/Src/stm32g0xx_hal_rcc.c ****       }
 879:Drivers/STM32G0xx_HAL_Driver/Src/stm32g0xx_hal_rcc.c ****     }
 880:Drivers/STM32G0xx_HAL_Driver/Src/stm32g0xx_hal_rcc.c ****     /* HSI is selected as System Clock Source */
 881:Drivers/STM32G0xx_HAL_Driver/Src/stm32g0xx_hal_rcc.c ****     else if (RCC_ClkInitStruct->SYSCLKSource == RCC_SYSCLKSOURCE_HSI)
 882:Drivers/STM32G0xx_HAL_Driver/Src/stm32g0xx_hal_rcc.c ****     {
 883:Drivers/STM32G0xx_HAL_Driver/Src/stm32g0xx_hal_rcc.c ****       /* Check the HSI ready flag */
 884:Drivers/STM32G0xx_HAL_Driver/Src/stm32g0xx_hal_rcc.c ****       if (READ_BIT(RCC->CR, RCC_CR_HSIRDY) == 0U)
 885:Drivers/STM32G0xx_HAL_Driver/Src/stm32g0xx_hal_rcc.c ****       {
 886:Drivers/STM32G0xx_HAL_Driver/Src/stm32g0xx_hal_rcc.c ****         return HAL_ERROR;
 887:Drivers/STM32G0xx_HAL_Driver/Src/stm32g0xx_hal_rcc.c ****       }
 888:Drivers/STM32G0xx_HAL_Driver/Src/stm32g0xx_hal_rcc.c ****     }
 889:Drivers/STM32G0xx_HAL_Driver/Src/stm32g0xx_hal_rcc.c ****     /* LSI is selected as System Clock Source */
 890:Drivers/STM32G0xx_HAL_Driver/Src/stm32g0xx_hal_rcc.c ****     else if (RCC_ClkInitStruct->SYSCLKSource == RCC_SYSCLKSOURCE_LSI)
 891:Drivers/STM32G0xx_HAL_Driver/Src/stm32g0xx_hal_rcc.c ****     {
 892:Drivers/STM32G0xx_HAL_Driver/Src/stm32g0xx_hal_rcc.c ****       /* Check the LSI ready flag */
 893:Drivers/STM32G0xx_HAL_Driver/Src/stm32g0xx_hal_rcc.c ****       if (READ_BIT(RCC->CSR, RCC_CSR_LSIRDY) == 0U)
 894:Drivers/STM32G0xx_HAL_Driver/Src/stm32g0xx_hal_rcc.c ****       {
 895:Drivers/STM32G0xx_HAL_Driver/Src/stm32g0xx_hal_rcc.c ****         return HAL_ERROR;
 896:Drivers/STM32G0xx_HAL_Driver/Src/stm32g0xx_hal_rcc.c ****       }
 897:Drivers/STM32G0xx_HAL_Driver/Src/stm32g0xx_hal_rcc.c ****     }
 898:Drivers/STM32G0xx_HAL_Driver/Src/stm32g0xx_hal_rcc.c ****     /* LSE is selected as System Clock Source */
 899:Drivers/STM32G0xx_HAL_Driver/Src/stm32g0xx_hal_rcc.c ****     else
 900:Drivers/STM32G0xx_HAL_Driver/Src/stm32g0xx_hal_rcc.c ****     {
 901:Drivers/STM32G0xx_HAL_Driver/Src/stm32g0xx_hal_rcc.c ****       /* Check the LSE ready flag */
 902:Drivers/STM32G0xx_HAL_Driver/Src/stm32g0xx_hal_rcc.c ****       if (READ_BIT(RCC->BDCR, RCC_BDCR_LSERDY) == 0U)
 903:Drivers/STM32G0xx_HAL_Driver/Src/stm32g0xx_hal_rcc.c ****       {
 904:Drivers/STM32G0xx_HAL_Driver/Src/stm32g0xx_hal_rcc.c ****         return HAL_ERROR;
ARM GAS  C:\Users\tugru\AppData\Local\Temp\ccZeWSML.s 			page 43


 905:Drivers/STM32G0xx_HAL_Driver/Src/stm32g0xx_hal_rcc.c ****       }
 906:Drivers/STM32G0xx_HAL_Driver/Src/stm32g0xx_hal_rcc.c ****     }
 907:Drivers/STM32G0xx_HAL_Driver/Src/stm32g0xx_hal_rcc.c ****     MODIFY_REG(RCC->CFGR, RCC_CFGR_SW, RCC_ClkInitStruct->SYSCLKSource);
 908:Drivers/STM32G0xx_HAL_Driver/Src/stm32g0xx_hal_rcc.c **** 
 909:Drivers/STM32G0xx_HAL_Driver/Src/stm32g0xx_hal_rcc.c ****     /* Get Start Tick*/
 910:Drivers/STM32G0xx_HAL_Driver/Src/stm32g0xx_hal_rcc.c ****     tickstart = HAL_GetTick();
 911:Drivers/STM32G0xx_HAL_Driver/Src/stm32g0xx_hal_rcc.c **** 
 912:Drivers/STM32G0xx_HAL_Driver/Src/stm32g0xx_hal_rcc.c ****     while (__HAL_RCC_GET_SYSCLK_SOURCE() != (RCC_ClkInitStruct->SYSCLKSource << RCC_CFGR_SWS_Pos))
 913:Drivers/STM32G0xx_HAL_Driver/Src/stm32g0xx_hal_rcc.c ****     {
 914:Drivers/STM32G0xx_HAL_Driver/Src/stm32g0xx_hal_rcc.c ****       if ((HAL_GetTick() - tickstart) > CLOCKSWITCH_TIMEOUT_VALUE)
 915:Drivers/STM32G0xx_HAL_Driver/Src/stm32g0xx_hal_rcc.c ****       {
 916:Drivers/STM32G0xx_HAL_Driver/Src/stm32g0xx_hal_rcc.c ****         return HAL_TIMEOUT;
 917:Drivers/STM32G0xx_HAL_Driver/Src/stm32g0xx_hal_rcc.c ****       }
 918:Drivers/STM32G0xx_HAL_Driver/Src/stm32g0xx_hal_rcc.c ****     }
 919:Drivers/STM32G0xx_HAL_Driver/Src/stm32g0xx_hal_rcc.c ****   }
 920:Drivers/STM32G0xx_HAL_Driver/Src/stm32g0xx_hal_rcc.c **** 
 921:Drivers/STM32G0xx_HAL_Driver/Src/stm32g0xx_hal_rcc.c ****   /* Decreasing the number of wait states because of lower CPU frequency */
 922:Drivers/STM32G0xx_HAL_Driver/Src/stm32g0xx_hal_rcc.c ****   if (FLatency < __HAL_FLASH_GET_LATENCY())
 923:Drivers/STM32G0xx_HAL_Driver/Src/stm32g0xx_hal_rcc.c ****   {
 924:Drivers/STM32G0xx_HAL_Driver/Src/stm32g0xx_hal_rcc.c ****     /* Program the new number of wait states to the LATENCY bits in the FLASH_ACR register */
 925:Drivers/STM32G0xx_HAL_Driver/Src/stm32g0xx_hal_rcc.c ****     __HAL_FLASH_SET_LATENCY(FLatency);
 926:Drivers/STM32G0xx_HAL_Driver/Src/stm32g0xx_hal_rcc.c **** 
 927:Drivers/STM32G0xx_HAL_Driver/Src/stm32g0xx_hal_rcc.c ****     /* Check that the new number of wait states is taken into account to access the Flash
 928:Drivers/STM32G0xx_HAL_Driver/Src/stm32g0xx_hal_rcc.c ****     memory by polling the FLASH_ACR register */
 929:Drivers/STM32G0xx_HAL_Driver/Src/stm32g0xx_hal_rcc.c ****     tickstart = HAL_GetTick();
 930:Drivers/STM32G0xx_HAL_Driver/Src/stm32g0xx_hal_rcc.c **** 
 931:Drivers/STM32G0xx_HAL_Driver/Src/stm32g0xx_hal_rcc.c ****     while ((FLASH->ACR & FLASH_ACR_LATENCY) != FLatency)
 932:Drivers/STM32G0xx_HAL_Driver/Src/stm32g0xx_hal_rcc.c ****     {
 933:Drivers/STM32G0xx_HAL_Driver/Src/stm32g0xx_hal_rcc.c ****       if ((HAL_GetTick() - tickstart) > CLOCKSWITCH_TIMEOUT_VALUE)
 934:Drivers/STM32G0xx_HAL_Driver/Src/stm32g0xx_hal_rcc.c ****       {
 935:Drivers/STM32G0xx_HAL_Driver/Src/stm32g0xx_hal_rcc.c ****         return HAL_TIMEOUT;
 936:Drivers/STM32G0xx_HAL_Driver/Src/stm32g0xx_hal_rcc.c ****       }
 937:Drivers/STM32G0xx_HAL_Driver/Src/stm32g0xx_hal_rcc.c ****     }
 938:Drivers/STM32G0xx_HAL_Driver/Src/stm32g0xx_hal_rcc.c ****   }
 939:Drivers/STM32G0xx_HAL_Driver/Src/stm32g0xx_hal_rcc.c **** 
 940:Drivers/STM32G0xx_HAL_Driver/Src/stm32g0xx_hal_rcc.c ****   /*-------------------------- PCLK1 Configuration ---------------------------*/
 941:Drivers/STM32G0xx_HAL_Driver/Src/stm32g0xx_hal_rcc.c ****   if (((RCC_ClkInitStruct->ClockType) & RCC_CLOCKTYPE_PCLK1) == RCC_CLOCKTYPE_PCLK1)
 942:Drivers/STM32G0xx_HAL_Driver/Src/stm32g0xx_hal_rcc.c ****   {
 943:Drivers/STM32G0xx_HAL_Driver/Src/stm32g0xx_hal_rcc.c ****     assert_param(IS_RCC_PCLK(RCC_ClkInitStruct->APB1CLKDivider));
 944:Drivers/STM32G0xx_HAL_Driver/Src/stm32g0xx_hal_rcc.c ****     MODIFY_REG(RCC->CFGR, RCC_CFGR_PPRE, RCC_ClkInitStruct->APB1CLKDivider);
 945:Drivers/STM32G0xx_HAL_Driver/Src/stm32g0xx_hal_rcc.c ****   }
 946:Drivers/STM32G0xx_HAL_Driver/Src/stm32g0xx_hal_rcc.c **** 
 947:Drivers/STM32G0xx_HAL_Driver/Src/stm32g0xx_hal_rcc.c ****   /* Update the SystemCoreClock global variable */
 948:Drivers/STM32G0xx_HAL_Driver/Src/stm32g0xx_hal_rcc.c ****   SystemCoreClock = (HAL_RCC_GetSysClockFreq() >> ((AHBPrescTable[(RCC->CFGR & RCC_CFGR_HPRE) >> RC
 949:Drivers/STM32G0xx_HAL_Driver/Src/stm32g0xx_hal_rcc.c **** 
 950:Drivers/STM32G0xx_HAL_Driver/Src/stm32g0xx_hal_rcc.c ****   /* Configure the source of time base considering new system clocks settings*/
 951:Drivers/STM32G0xx_HAL_Driver/Src/stm32g0xx_hal_rcc.c ****   return HAL_InitTick(uwTickPrio);
 952:Drivers/STM32G0xx_HAL_Driver/Src/stm32g0xx_hal_rcc.c **** }
 953:Drivers/STM32G0xx_HAL_Driver/Src/stm32g0xx_hal_rcc.c **** 
 954:Drivers/STM32G0xx_HAL_Driver/Src/stm32g0xx_hal_rcc.c **** /**
 955:Drivers/STM32G0xx_HAL_Driver/Src/stm32g0xx_hal_rcc.c ****   * @}
 956:Drivers/STM32G0xx_HAL_Driver/Src/stm32g0xx_hal_rcc.c ****   */
 957:Drivers/STM32G0xx_HAL_Driver/Src/stm32g0xx_hal_rcc.c **** 
 958:Drivers/STM32G0xx_HAL_Driver/Src/stm32g0xx_hal_rcc.c **** /** @defgroup RCC_Exported_Functions_Group2 Peripheral Control functions
 959:Drivers/STM32G0xx_HAL_Driver/Src/stm32g0xx_hal_rcc.c ****   *  @brief   RCC clocks control functions
 960:Drivers/STM32G0xx_HAL_Driver/Src/stm32g0xx_hal_rcc.c ****   *
 961:Drivers/STM32G0xx_HAL_Driver/Src/stm32g0xx_hal_rcc.c **** @verbatim
ARM GAS  C:\Users\tugru\AppData\Local\Temp\ccZeWSML.s 			page 44


 962:Drivers/STM32G0xx_HAL_Driver/Src/stm32g0xx_hal_rcc.c ****  ===============================================================================
 963:Drivers/STM32G0xx_HAL_Driver/Src/stm32g0xx_hal_rcc.c ****                       ##### Peripheral Control functions #####
 964:Drivers/STM32G0xx_HAL_Driver/Src/stm32g0xx_hal_rcc.c ****  ===============================================================================
 965:Drivers/STM32G0xx_HAL_Driver/Src/stm32g0xx_hal_rcc.c ****     [..]
 966:Drivers/STM32G0xx_HAL_Driver/Src/stm32g0xx_hal_rcc.c ****     This subsection provides a set of functions allowing to:
 967:Drivers/STM32G0xx_HAL_Driver/Src/stm32g0xx_hal_rcc.c **** 
 968:Drivers/STM32G0xx_HAL_Driver/Src/stm32g0xx_hal_rcc.c ****     (+) Output clock to MCO pin.
 969:Drivers/STM32G0xx_HAL_Driver/Src/stm32g0xx_hal_rcc.c ****     (+) Retrieve current clock frequencies.
 970:Drivers/STM32G0xx_HAL_Driver/Src/stm32g0xx_hal_rcc.c ****     (+) Enable the Clock Security System.
 971:Drivers/STM32G0xx_HAL_Driver/Src/stm32g0xx_hal_rcc.c **** 
 972:Drivers/STM32G0xx_HAL_Driver/Src/stm32g0xx_hal_rcc.c **** @endverbatim
 973:Drivers/STM32G0xx_HAL_Driver/Src/stm32g0xx_hal_rcc.c ****   * @{
 974:Drivers/STM32G0xx_HAL_Driver/Src/stm32g0xx_hal_rcc.c ****   */
 975:Drivers/STM32G0xx_HAL_Driver/Src/stm32g0xx_hal_rcc.c **** 
 976:Drivers/STM32G0xx_HAL_Driver/Src/stm32g0xx_hal_rcc.c **** /**
 977:Drivers/STM32G0xx_HAL_Driver/Src/stm32g0xx_hal_rcc.c ****   * @brief  Select the clock source to output on MCO1 pin(PA8) or MC02 pin (PA10)(*).
 978:Drivers/STM32G0xx_HAL_Driver/Src/stm32g0xx_hal_rcc.c ****   * @note   PA8, PA10(*) should be configured in alternate function mode.
 979:Drivers/STM32G0xx_HAL_Driver/Src/stm32g0xx_hal_rcc.c ****   * @param  RCC_MCOx  specifies the output direction for the clock source.
 980:Drivers/STM32G0xx_HAL_Driver/Src/stm32g0xx_hal_rcc.c ****   *          For STM32G0xx family this parameter can have only one value:
 981:Drivers/STM32G0xx_HAL_Driver/Src/stm32g0xx_hal_rcc.c ****   *            @arg @ref RCC_MCO_PA8  Clock source to output on MCO1 pin(PA8).
 982:Drivers/STM32G0xx_HAL_Driver/Src/stm32g0xx_hal_rcc.c ****   *            @arg @ref RCC_MCO_PA9  Clock source to output on MCO1 pin(PA9).
 983:Drivers/STM32G0xx_HAL_Driver/Src/stm32g0xx_hal_rcc.c ****   *            @arg @ref RCC_MCO_PD10 Clock source to output on MCO1 pin(PD10)(*).
 984:Drivers/STM32G0xx_HAL_Driver/Src/stm32g0xx_hal_rcc.c ****   *            @arg @ref RCC_MCO_PF2  Clock source to output on MCO1 pin(PF2)(*).
 985:Drivers/STM32G0xx_HAL_Driver/Src/stm32g0xx_hal_rcc.c ****   *            @arg @ref RCC_MCO_PA10 Clock source to output on MCO2 pin(PA10)(*).
 986:Drivers/STM32G0xx_HAL_Driver/Src/stm32g0xx_hal_rcc.c ****   *            @arg @ref RCC_MCO_PA15 Clock source to output on MCO2 pin(PA15)(*).
 987:Drivers/STM32G0xx_HAL_Driver/Src/stm32g0xx_hal_rcc.c ****   *            @arg @ref RCC_MCO_PB2  Clock source to output on MCO2 pin(PB2)(*).
 988:Drivers/STM32G0xx_HAL_Driver/Src/stm32g0xx_hal_rcc.c ****   *            @arg @ref RCC_MCO_PD7  Clock source to output on MCO2 pin(PD7)(*).
 989:Drivers/STM32G0xx_HAL_Driver/Src/stm32g0xx_hal_rcc.c ****   * @param  RCC_MCOSource  specifies the clock source to output.
 990:Drivers/STM32G0xx_HAL_Driver/Src/stm32g0xx_hal_rcc.c ****   *          This parameter can be one of the following values:
 991:Drivers/STM32G0xx_HAL_Driver/Src/stm32g0xx_hal_rcc.c ****   *            @arg @ref RCC_MCO1SOURCE_NOCLOCK  MCO output disabled, no clock on MCO
 992:Drivers/STM32G0xx_HAL_Driver/Src/stm32g0xx_hal_rcc.c ****   *            @arg @ref RCC_MCO1SOURCE_SYSCLK   system  clock selected as MCO source
 993:Drivers/STM32G0xx_HAL_Driver/Src/stm32g0xx_hal_rcc.c ****   *            @arg @ref RCC_MCO1SOURCE_HSI48    HSI48 clock selected as MCO source for devices wit
 994:Drivers/STM32G0xx_HAL_Driver/Src/stm32g0xx_hal_rcc.c ****   *            @arg @ref RCC_MCO1SOURCE_HSI      HSI clock selected as MCO source
 995:Drivers/STM32G0xx_HAL_Driver/Src/stm32g0xx_hal_rcc.c ****   *            @arg @ref RCC_MCO1SOURCE_HSE      HSE clock selected as MCO source
 996:Drivers/STM32G0xx_HAL_Driver/Src/stm32g0xx_hal_rcc.c ****   *            @arg @ref RCC_MCO1SOURCE_PLLCLK   main PLLR clock selected as MCO source
 997:Drivers/STM32G0xx_HAL_Driver/Src/stm32g0xx_hal_rcc.c ****   *            @arg @ref RCC_MCO1SOURCE_LSI      LSI clock selected as MCO source
 998:Drivers/STM32G0xx_HAL_Driver/Src/stm32g0xx_hal_rcc.c ****   *            @arg @ref RCC_MCO1SOURCE_LSE      LSE clock selected as MCO source
 999:Drivers/STM32G0xx_HAL_Driver/Src/stm32g0xx_hal_rcc.c ****   *            @arg @ref RCC_MCO1SOURCE_PLLPCLK  PLLP clock selected as MCO1 source(*)
1000:Drivers/STM32G0xx_HAL_Driver/Src/stm32g0xx_hal_rcc.c ****   *            @arg @ref RCC_MCO1SOURCE_PLLQCLK  PLLQ clock selected as MCO1 source(*)
1001:Drivers/STM32G0xx_HAL_Driver/Src/stm32g0xx_hal_rcc.c ****   *            @arg @ref RCC_MCO1SOURCE_RTCCLK   RTC clock selected as MCO1 source(*)
1002:Drivers/STM32G0xx_HAL_Driver/Src/stm32g0xx_hal_rcc.c ****   *            @arg @ref RCC_MCO1SOURCE_RTC_WKUP RTC_Wakeup selected as MCO1 source(*)
1003:Drivers/STM32G0xx_HAL_Driver/Src/stm32g0xx_hal_rcc.c ****   *            @arg @ref RCC_MCO2SOURCE_NOCLOCK  MCO2 output disabled, no clock on MCO2(*)
1004:Drivers/STM32G0xx_HAL_Driver/Src/stm32g0xx_hal_rcc.c ****   *            @arg @ref RCC_MCO2SOURCE_SYSCLK   system  clock selected as MCO2 source(*)
1005:Drivers/STM32G0xx_HAL_Driver/Src/stm32g0xx_hal_rcc.c ****   *            @arg @ref RCC_MCO2SOURCE_HSI48    HSI48 clock selected as MCO2 source for devices wi
1006:Drivers/STM32G0xx_HAL_Driver/Src/stm32g0xx_hal_rcc.c ****   *            @arg @ref RCC_MCO2SOURCE_HSI      HSI clock selected as MCO2 source(*)
1007:Drivers/STM32G0xx_HAL_Driver/Src/stm32g0xx_hal_rcc.c ****   *            @arg @ref RCC_MCO2SOURCE_HSE      HSE clock selected as MCO2 source(*)
1008:Drivers/STM32G0xx_HAL_Driver/Src/stm32g0xx_hal_rcc.c ****   *            @arg @ref RCC_MCO2SOURCE_PLLCLK   main PLLR clock selected as MCO2 source(*)
1009:Drivers/STM32G0xx_HAL_Driver/Src/stm32g0xx_hal_rcc.c ****   *            @arg @ref RCC_MCO2SOURCE_LSI      LSI clock selected as MCO2 source(*)
1010:Drivers/STM32G0xx_HAL_Driver/Src/stm32g0xx_hal_rcc.c ****   *            @arg @ref RCC_MCO2SOURCE_LSE      LSE clock selected as MCO2 source(*)
1011:Drivers/STM32G0xx_HAL_Driver/Src/stm32g0xx_hal_rcc.c ****   *            @arg @ref RCC_MCO2SOURCE_PLLPCLK  PLLP clock selected as MCO2 source(*)
1012:Drivers/STM32G0xx_HAL_Driver/Src/stm32g0xx_hal_rcc.c ****   *            @arg @ref RCC_MCO2SOURCE_PLLQCLK  PLLQ clock selected as MCO2 source(*)
1013:Drivers/STM32G0xx_HAL_Driver/Src/stm32g0xx_hal_rcc.c ****   *            @arg @ref RCC_MCO2SOURCE_RTCCLK   RTC clock selected as MCO2 source(*)
1014:Drivers/STM32G0xx_HAL_Driver/Src/stm32g0xx_hal_rcc.c ****   *            @arg @ref RCC_MCO2SOURCE_RTC_WKUP RTC_Wakeup selected as MCO2 source(*)
1015:Drivers/STM32G0xx_HAL_Driver/Src/stm32g0xx_hal_rcc.c ****   * @param  RCC_MCODiv  specifies the MCO prescaler.
1016:Drivers/STM32G0xx_HAL_Driver/Src/stm32g0xx_hal_rcc.c ****   *          This parameter can be one of the following values:
1017:Drivers/STM32G0xx_HAL_Driver/Src/stm32g0xx_hal_rcc.c ****   *            @arg @ref RCC_MCODIV_1     no division applied to MCO clock
1018:Drivers/STM32G0xx_HAL_Driver/Src/stm32g0xx_hal_rcc.c ****   *            @arg @ref RCC_MCODIV_2     division by 2 applied to MCO clock
ARM GAS  C:\Users\tugru\AppData\Local\Temp\ccZeWSML.s 			page 45


1019:Drivers/STM32G0xx_HAL_Driver/Src/stm32g0xx_hal_rcc.c ****   *            @arg @ref RCC_MCODIV_4     division by 4 applied to MCO clock
1020:Drivers/STM32G0xx_HAL_Driver/Src/stm32g0xx_hal_rcc.c ****   *            @arg @ref RCC_MCODIV_8     division by 8 applied to MCO clock
1021:Drivers/STM32G0xx_HAL_Driver/Src/stm32g0xx_hal_rcc.c ****   *            @arg @ref RCC_MCODIV_16    division by 16 applied to MCO clock
1022:Drivers/STM32G0xx_HAL_Driver/Src/stm32g0xx_hal_rcc.c ****   *            @arg @ref RCC_MCODIV_32    division by 32 applied to MCO clock
1023:Drivers/STM32G0xx_HAL_Driver/Src/stm32g0xx_hal_rcc.c ****   *            @arg @ref RCC_MCODIV_64    division by 64 applied to MCO clock
1024:Drivers/STM32G0xx_HAL_Driver/Src/stm32g0xx_hal_rcc.c ****   *            @arg @ref RCC_MCODIV_128   division by 128 applied to MCO clock
1025:Drivers/STM32G0xx_HAL_Driver/Src/stm32g0xx_hal_rcc.c ****   *            @arg @ref RCC_MCO2DIV_1    no division applied to MCO2 clock(*)
1026:Drivers/STM32G0xx_HAL_Driver/Src/stm32g0xx_hal_rcc.c ****   *            @arg @ref RCC_MCO2DIV_2    division by 2 applied to MCO2 clock(*)
1027:Drivers/STM32G0xx_HAL_Driver/Src/stm32g0xx_hal_rcc.c ****   *            @arg @ref RCC_MCO2DIV_4    division by 4 applied to MCO2 clock(*)
1028:Drivers/STM32G0xx_HAL_Driver/Src/stm32g0xx_hal_rcc.c ****   *            @arg @ref RCC_MCO2DIV_8    division by 8 applied to MCO2 clock(*)
1029:Drivers/STM32G0xx_HAL_Driver/Src/stm32g0xx_hal_rcc.c ****   *            @arg @ref RCC_MCO2DIV_16   division by 16 applied to MCO2 clock(*)
1030:Drivers/STM32G0xx_HAL_Driver/Src/stm32g0xx_hal_rcc.c ****   *            @arg @ref RCC_MCO2DIV_32   division by 32 applied to MCO2 clock(*)
1031:Drivers/STM32G0xx_HAL_Driver/Src/stm32g0xx_hal_rcc.c ****   *            @arg @ref RCC_MCO2DIV_64   division by 64 applied to MCO2 clock(*)
1032:Drivers/STM32G0xx_HAL_Driver/Src/stm32g0xx_hal_rcc.c ****   *            @arg @ref RCC_MCO2DIV_128  division by 128 applied to MCO2 clock(*)
1033:Drivers/STM32G0xx_HAL_Driver/Src/stm32g0xx_hal_rcc.c ****   *            @arg @ref RCC_MCO2DIV_256  division by 256 applied to MCO2 clock(*)
1034:Drivers/STM32G0xx_HAL_Driver/Src/stm32g0xx_hal_rcc.c ****   *            @arg @ref RCC_MCO2DIV_512  division by 512 applied to MCO2 clock(*)
1035:Drivers/STM32G0xx_HAL_Driver/Src/stm32g0xx_hal_rcc.c ****   *            @arg @ref RCC_MCO2DIV_1024 division by 1024 applied to MCO2 clock(*)
1036:Drivers/STM32G0xx_HAL_Driver/Src/stm32g0xx_hal_rcc.c ****   *
1037:Drivers/STM32G0xx_HAL_Driver/Src/stm32g0xx_hal_rcc.c ****   * (*) Feature not available on all devices of the family
1038:Drivers/STM32G0xx_HAL_Driver/Src/stm32g0xx_hal_rcc.c ****   * @retval None
1039:Drivers/STM32G0xx_HAL_Driver/Src/stm32g0xx_hal_rcc.c ****   */
1040:Drivers/STM32G0xx_HAL_Driver/Src/stm32g0xx_hal_rcc.c **** void HAL_RCC_MCOConfig(uint32_t RCC_MCOx, uint32_t RCC_MCOSource, uint32_t RCC_MCODiv)
1041:Drivers/STM32G0xx_HAL_Driver/Src/stm32g0xx_hal_rcc.c **** {
 1294              		.loc 1 1041 1 is_stmt 1 view -0
 1295              		.cfi_startproc
 1296              		@ args = 0, pretend = 0, frame = 32
 1297              		@ frame_needed = 0, uses_anonymous_args = 0
 1298              		.loc 1 1041 1 is_stmt 0 view .LVU396
 1299 0000 F0B5     		push	{r4, r5, r6, r7, lr}
 1300              	.LCFI3:
 1301              		.cfi_def_cfa_offset 20
 1302              		.cfi_offset 4, -20
 1303              		.cfi_offset 5, -16
 1304              		.cfi_offset 6, -12
 1305              		.cfi_offset 7, -8
 1306              		.cfi_offset 14, -4
 1307 0002 89B0     		sub	sp, sp, #36
 1308              	.LCFI4:
 1309              		.cfi_def_cfa_offset 56
 1310 0004 0300     		movs	r3, r0
 1311 0006 0C00     		movs	r4, r1
 1312 0008 0192     		str	r2, [sp, #4]
1042:Drivers/STM32G0xx_HAL_Driver/Src/stm32g0xx_hal_rcc.c ****   GPIO_InitTypeDef gpio_initstruct;
 1313              		.loc 1 1042 3 is_stmt 1 view .LVU397
1043:Drivers/STM32G0xx_HAL_Driver/Src/stm32g0xx_hal_rcc.c ****   uint32_t mcoindex;
 1314              		.loc 1 1043 3 view .LVU398
1044:Drivers/STM32G0xx_HAL_Driver/Src/stm32g0xx_hal_rcc.c ****   uint32_t mco_gpio_index;
 1315              		.loc 1 1044 3 view .LVU399
1045:Drivers/STM32G0xx_HAL_Driver/Src/stm32g0xx_hal_rcc.c ****   GPIO_TypeDef * mco_gpio_port;
 1316              		.loc 1 1045 3 view .LVU400
1046:Drivers/STM32G0xx_HAL_Driver/Src/stm32g0xx_hal_rcc.c **** 
1047:Drivers/STM32G0xx_HAL_Driver/Src/stm32g0xx_hal_rcc.c ****   /* Check the parameters */
1048:Drivers/STM32G0xx_HAL_Driver/Src/stm32g0xx_hal_rcc.c ****   assert_param(IS_RCC_MCO(RCC_MCOx));
 1317              		.loc 1 1048 3 view .LVU401
1049:Drivers/STM32G0xx_HAL_Driver/Src/stm32g0xx_hal_rcc.c **** 
1050:Drivers/STM32G0xx_HAL_Driver/Src/stm32g0xx_hal_rcc.c ****   /* Common GPIO init parameters */
1051:Drivers/STM32G0xx_HAL_Driver/Src/stm32g0xx_hal_rcc.c ****   gpio_initstruct.Mode      = GPIO_MODE_AF_PP;
ARM GAS  C:\Users\tugru\AppData\Local\Temp\ccZeWSML.s 			page 46


 1318              		.loc 1 1051 3 view .LVU402
 1319              		.loc 1 1051 29 is_stmt 0 view .LVU403
 1320 000a 0222     		movs	r2, #2
 1321              	.LVL99:
 1322              		.loc 1 1051 29 view .LVU404
 1323 000c 0492     		str	r2, [sp, #16]
1052:Drivers/STM32G0xx_HAL_Driver/Src/stm32g0xx_hal_rcc.c ****   gpio_initstruct.Speed     = GPIO_SPEED_FREQ_VERY_HIGH;
 1324              		.loc 1 1052 3 is_stmt 1 view .LVU405
 1325              		.loc 1 1052 29 is_stmt 0 view .LVU406
 1326 000e 0132     		adds	r2, r2, #1
 1327 0010 0692     		str	r2, [sp, #24]
1053:Drivers/STM32G0xx_HAL_Driver/Src/stm32g0xx_hal_rcc.c ****   gpio_initstruct.Pull      = GPIO_NOPULL;
 1328              		.loc 1 1053 3 is_stmt 1 view .LVU407
 1329              		.loc 1 1053 29 is_stmt 0 view .LVU408
 1330 0012 0022     		movs	r2, #0
 1331 0014 0592     		str	r2, [sp, #20]
1054:Drivers/STM32G0xx_HAL_Driver/Src/stm32g0xx_hal_rcc.c **** 
1055:Drivers/STM32G0xx_HAL_Driver/Src/stm32g0xx_hal_rcc.c ****   /* Get MCOx selection */
1056:Drivers/STM32G0xx_HAL_Driver/Src/stm32g0xx_hal_rcc.c ****   mcoindex = RCC_MCOx & RCC_MCO_INDEX_MASK;
 1332              		.loc 1 1056 3 is_stmt 1 view .LVU409
 1333              		.loc 1 1056 12 is_stmt 0 view .LVU410
 1334 0016 8026     		movs	r6, #128
 1335 0018 7605     		lsls	r6, r6, #21
 1336 001a 0640     		ands	r6, r0
 1337              	.LVL100:
1057:Drivers/STM32G0xx_HAL_Driver/Src/stm32g0xx_hal_rcc.c **** 
1058:Drivers/STM32G0xx_HAL_Driver/Src/stm32g0xx_hal_rcc.c ****   /* Get MCOx GPIO Port */
1059:Drivers/STM32G0xx_HAL_Driver/Src/stm32g0xx_hal_rcc.c ****   mco_gpio_port = (GPIO_TypeDef *) RCC_GET_MCO_GPIO_PORT(RCC_MCOx);
 1338              		.loc 1 1059 3 is_stmt 1 view .LVU411
 1339              		.loc 1 1059 36 is_stmt 0 view .LVU412
 1340 001c 010C     		lsrs	r1, r0, #16
 1341              	.LVL101:
 1342              		.loc 1 1059 36 view .LVU413
 1343 001e 0F32     		adds	r2, r2, #15
 1344 0020 0A40     		ands	r2, r1
 1345 0022 A021     		movs	r1, #160
 1346 0024 4903     		lsls	r1, r1, #13
 1347 0026 5018     		adds	r0, r2, r1
 1348              	.LVL102:
 1349              		.loc 1 1059 36 view .LVU414
 1350 0028 8002     		lsls	r0, r0, #10
 1351              	.LVL103:
1060:Drivers/STM32G0xx_HAL_Driver/Src/stm32g0xx_hal_rcc.c **** 
1061:Drivers/STM32G0xx_HAL_Driver/Src/stm32g0xx_hal_rcc.c ****   /* MCOx Clock Enable */
1062:Drivers/STM32G0xx_HAL_Driver/Src/stm32g0xx_hal_rcc.c ****   mco_gpio_index = RCC_GET_MCO_GPIO_INDEX(RCC_MCOx);
 1352              		.loc 1 1062 3 is_stmt 1 view .LVU415
1063:Drivers/STM32G0xx_HAL_Driver/Src/stm32g0xx_hal_rcc.c ****   SET_BIT(RCC->IOPENR, (1UL << mco_gpio_index ));
 1353              		.loc 1 1063 3 view .LVU416
 1354 002a 0E4D     		ldr	r5, .L122
 1355 002c 696B     		ldr	r1, [r5, #52]
 1356 002e 0127     		movs	r7, #1
 1357 0030 9740     		lsls	r7, r7, r2
 1358 0032 3A00     		movs	r2, r7
 1359              	.LVL104:
 1360              		.loc 1 1063 3 is_stmt 0 view .LVU417
 1361 0034 0A43     		orrs	r2, r1
 1362 0036 6A63     		str	r2, [r5, #52]
ARM GAS  C:\Users\tugru\AppData\Local\Temp\ccZeWSML.s 			page 47


 1363              	.LVL105:
1064:Drivers/STM32G0xx_HAL_Driver/Src/stm32g0xx_hal_rcc.c **** 
1065:Drivers/STM32G0xx_HAL_Driver/Src/stm32g0xx_hal_rcc.c ****   /* Configure the MCOx pin in alternate function mode */
1066:Drivers/STM32G0xx_HAL_Driver/Src/stm32g0xx_hal_rcc.c ****   gpio_initstruct.Pin = RCC_GET_MCO_GPIO_PIN(RCC_MCOx);
 1364              		.loc 1 1066 3 is_stmt 1 view .LVU418
 1365              		.loc 1 1066 25 is_stmt 0 view .LVU419
 1366 0038 1A04     		lsls	r2, r3, #16
 1367 003a 120C     		lsrs	r2, r2, #16
 1368              		.loc 1 1066 23 view .LVU420
 1369 003c 0392     		str	r2, [sp, #12]
1067:Drivers/STM32G0xx_HAL_Driver/Src/stm32g0xx_hal_rcc.c ****   gpio_initstruct.Alternate = RCC_GET_MCO_GPIO_AF(RCC_MCOx);
 1370              		.loc 1 1067 3 is_stmt 1 view .LVU421
 1371              		.loc 1 1067 31 is_stmt 0 view .LVU422
 1372 003e 1B0D     		lsrs	r3, r3, #20
 1373              	.LVL106:
 1374              		.loc 1 1067 31 view .LVU423
 1375 0040 FF22     		movs	r2, #255
 1376 0042 1340     		ands	r3, r2
 1377              		.loc 1 1067 29 view .LVU424
 1378 0044 0793     		str	r3, [sp, #28]
1068:Drivers/STM32G0xx_HAL_Driver/Src/stm32g0xx_hal_rcc.c ****   HAL_GPIO_Init(mco_gpio_port, &gpio_initstruct);
 1379              		.loc 1 1068 3 is_stmt 1 view .LVU425
 1380 0046 03A9     		add	r1, sp, #12
 1381 0048 FFF7FEFF 		bl	HAL_GPIO_Init
 1382              	.LVL107:
1069:Drivers/STM32G0xx_HAL_Driver/Src/stm32g0xx_hal_rcc.c **** 
1070:Drivers/STM32G0xx_HAL_Driver/Src/stm32g0xx_hal_rcc.c ****   if (mcoindex == RCC_MCO1_INDEX)
 1383              		.loc 1 1070 3 view .LVU426
 1384              		.loc 1 1070 6 is_stmt 0 view .LVU427
 1385 004c 002E     		cmp	r6, #0
 1386 004e 06D1     		bne	.L120
1071:Drivers/STM32G0xx_HAL_Driver/Src/stm32g0xx_hal_rcc.c ****   {
1072:Drivers/STM32G0xx_HAL_Driver/Src/stm32g0xx_hal_rcc.c ****     assert_param(IS_RCC_MCODIV(RCC_MCODiv));
 1387              		.loc 1 1072 5 is_stmt 1 view .LVU428
1073:Drivers/STM32G0xx_HAL_Driver/Src/stm32g0xx_hal_rcc.c ****     assert_param(IS_RCC_MCO1SOURCE(RCC_MCOSource));
 1388              		.loc 1 1073 5 view .LVU429
1074:Drivers/STM32G0xx_HAL_Driver/Src/stm32g0xx_hal_rcc.c ****     /* Mask MCOSEL[] and MCOPRE[] bits then set MCO clock source and prescaler */
1075:Drivers/STM32G0xx_HAL_Driver/Src/stm32g0xx_hal_rcc.c ****     MODIFY_REG(RCC->CFGR, (RCC_CFGR_MCOSEL | RCC_CFGR_MCOPRE), (RCC_MCOSource | RCC_MCODiv));
 1389              		.loc 1 1075 5 view .LVU430
 1390 0050 AB68     		ldr	r3, [r5, #8]
 1391 0052 054A     		ldr	r2, .L122+4
 1392 0054 1340     		ands	r3, r2
 1393 0056 019A     		ldr	r2, [sp, #4]
 1394 0058 1443     		orrs	r4, r2
 1395              	.LVL108:
 1396              		.loc 1 1075 5 is_stmt 0 view .LVU431
 1397 005a 1C43     		orrs	r4, r3
 1398 005c AC60     		str	r4, [r5, #8]
1076:Drivers/STM32G0xx_HAL_Driver/Src/stm32g0xx_hal_rcc.c ****   }
1077:Drivers/STM32G0xx_HAL_Driver/Src/stm32g0xx_hal_rcc.c **** #if defined(RCC_MCO2_SUPPORT)
1078:Drivers/STM32G0xx_HAL_Driver/Src/stm32g0xx_hal_rcc.c ****   else if (mcoindex == RCC_MCO2_INDEX)
1079:Drivers/STM32G0xx_HAL_Driver/Src/stm32g0xx_hal_rcc.c ****   {
1080:Drivers/STM32G0xx_HAL_Driver/Src/stm32g0xx_hal_rcc.c ****     assert_param(IS_RCC_MCO2DIV(RCC_MCODiv));
1081:Drivers/STM32G0xx_HAL_Driver/Src/stm32g0xx_hal_rcc.c ****     assert_param(IS_RCC_MCO2SOURCE(RCC_MCOSource));
1082:Drivers/STM32G0xx_HAL_Driver/Src/stm32g0xx_hal_rcc.c ****     /* Mask MCOSEL[] and MCOPRE[] bits then set MCO clock source and prescaler */
1083:Drivers/STM32G0xx_HAL_Driver/Src/stm32g0xx_hal_rcc.c ****     MODIFY_REG(RCC->CFGR, (RCC_CFGR_MCO2SEL | RCC_CFGR_MCO2PRE), (RCC_MCOSource | RCC_MCODiv));
1084:Drivers/STM32G0xx_HAL_Driver/Src/stm32g0xx_hal_rcc.c ****   }
ARM GAS  C:\Users\tugru\AppData\Local\Temp\ccZeWSML.s 			page 48


1085:Drivers/STM32G0xx_HAL_Driver/Src/stm32g0xx_hal_rcc.c **** #endif /* RCC_MCO2_SUPPORT */
1086:Drivers/STM32G0xx_HAL_Driver/Src/stm32g0xx_hal_rcc.c ****   else
1087:Drivers/STM32G0xx_HAL_Driver/Src/stm32g0xx_hal_rcc.c ****   {
1088:Drivers/STM32G0xx_HAL_Driver/Src/stm32g0xx_hal_rcc.c ****     /* Nothing to do */
1089:Drivers/STM32G0xx_HAL_Driver/Src/stm32g0xx_hal_rcc.c ****   }
 1399              		.loc 1 1089 3 is_stmt 1 view .LVU432
 1400              	.L120:
1090:Drivers/STM32G0xx_HAL_Driver/Src/stm32g0xx_hal_rcc.c **** }
 1401              		.loc 1 1090 1 is_stmt 0 view .LVU433
 1402 005e 09B0     		add	sp, sp, #36
 1403              		@ sp needed
 1404              	.LVL109:
 1405              		.loc 1 1090 1 view .LVU434
 1406 0060 F0BD     		pop	{r4, r5, r6, r7, pc}
 1407              	.L123:
 1408 0062 C046     		.align	2
 1409              	.L122:
 1410 0064 00100240 		.word	1073876992
 1411 0068 FFFFFF88 		.word	-1996488705
 1412              		.cfi_endproc
 1413              	.LFE313:
 1415              		.global	__aeabi_uidiv
 1416              		.section	.text.HAL_RCC_GetSysClockFreq,"ax",%progbits
 1417              		.align	1
 1418              		.global	HAL_RCC_GetSysClockFreq
 1419              		.syntax unified
 1420              		.code	16
 1421              		.thumb_func
 1423              	HAL_RCC_GetSysClockFreq:
 1424              	.LFB314:
1091:Drivers/STM32G0xx_HAL_Driver/Src/stm32g0xx_hal_rcc.c **** 
1092:Drivers/STM32G0xx_HAL_Driver/Src/stm32g0xx_hal_rcc.c **** /**
1093:Drivers/STM32G0xx_HAL_Driver/Src/stm32g0xx_hal_rcc.c ****   * @brief  Return the SYSCLK frequency.
1094:Drivers/STM32G0xx_HAL_Driver/Src/stm32g0xx_hal_rcc.c ****   *
1095:Drivers/STM32G0xx_HAL_Driver/Src/stm32g0xx_hal_rcc.c ****   * @note   The system frequency computed by this function is not the real
1096:Drivers/STM32G0xx_HAL_Driver/Src/stm32g0xx_hal_rcc.c ****   *         frequency in the chip. It is calculated based on the predefined
1097:Drivers/STM32G0xx_HAL_Driver/Src/stm32g0xx_hal_rcc.c ****   *         constant and the selected clock source:
1098:Drivers/STM32G0xx_HAL_Driver/Src/stm32g0xx_hal_rcc.c ****   * @note     If SYSCLK source is HSI, function returns values based on HSI_VALUE/HSIDIV(*)
1099:Drivers/STM32G0xx_HAL_Driver/Src/stm32g0xx_hal_rcc.c ****   * @note     If SYSCLK source is HSE, function returns values based on HSE_VALUE(**)
1100:Drivers/STM32G0xx_HAL_Driver/Src/stm32g0xx_hal_rcc.c ****   * @note     If SYSCLK source is PLL, function returns values based on HSE_VALUE(**),
1101:Drivers/STM32G0xx_HAL_Driver/Src/stm32g0xx_hal_rcc.c ****   *           or HSI_VALUE(*) multiplied/divided by the PLL factors.
1102:Drivers/STM32G0xx_HAL_Driver/Src/stm32g0xx_hal_rcc.c ****   * @note     If SYSCLK source is LSI, function returns values based on LSI_VALUE(***)
1103:Drivers/STM32G0xx_HAL_Driver/Src/stm32g0xx_hal_rcc.c ****   * @note     If SYSCLK source is LSE, function returns values based on LSE_VALUE(****)
1104:Drivers/STM32G0xx_HAL_Driver/Src/stm32g0xx_hal_rcc.c ****   * @note     (*) HSI_VALUE is a constant defined in stm32g0xx_hal_conf.h file (default value
1105:Drivers/STM32G0xx_HAL_Driver/Src/stm32g0xx_hal_rcc.c ****   *               16 MHz) but the real value may vary depending on the variations
1106:Drivers/STM32G0xx_HAL_Driver/Src/stm32g0xx_hal_rcc.c ****   *               in voltage and temperature.
1107:Drivers/STM32G0xx_HAL_Driver/Src/stm32g0xx_hal_rcc.c ****   * @note     (**) HSE_VALUE is a constant defined in stm32g0xx_hal_conf.h file (default value
1108:Drivers/STM32G0xx_HAL_Driver/Src/stm32g0xx_hal_rcc.c ****   *                8 MHz), user has to ensure that HSE_VALUE is same as the real
1109:Drivers/STM32G0xx_HAL_Driver/Src/stm32g0xx_hal_rcc.c ****   *                frequency of the crystal used. Otherwise, this function may
1110:Drivers/STM32G0xx_HAL_Driver/Src/stm32g0xx_hal_rcc.c ****   *                have wrong result.
1111:Drivers/STM32G0xx_HAL_Driver/Src/stm32g0xx_hal_rcc.c ****   * @note     (***) LSE_VALUE is a constant defined in stm32g0xx_hal_conf.h file (default value
1112:Drivers/STM32G0xx_HAL_Driver/Src/stm32g0xx_hal_rcc.c ****   *               32768 Hz).
1113:Drivers/STM32G0xx_HAL_Driver/Src/stm32g0xx_hal_rcc.c ****   * @note     (****) LSI_VALUE is a constant defined in stm32g0xx_hal_conf.h file (default value
1114:Drivers/STM32G0xx_HAL_Driver/Src/stm32g0xx_hal_rcc.c ****   *               32000 Hz).
1115:Drivers/STM32G0xx_HAL_Driver/Src/stm32g0xx_hal_rcc.c ****   *
1116:Drivers/STM32G0xx_HAL_Driver/Src/stm32g0xx_hal_rcc.c ****   * @note   The result of this function could be not correct when using fractional
1117:Drivers/STM32G0xx_HAL_Driver/Src/stm32g0xx_hal_rcc.c ****   *         value for HSE crystal.
ARM GAS  C:\Users\tugru\AppData\Local\Temp\ccZeWSML.s 			page 49


1118:Drivers/STM32G0xx_HAL_Driver/Src/stm32g0xx_hal_rcc.c ****   *
1119:Drivers/STM32G0xx_HAL_Driver/Src/stm32g0xx_hal_rcc.c ****   * @note   This function can be used by the user application to compute the
1120:Drivers/STM32G0xx_HAL_Driver/Src/stm32g0xx_hal_rcc.c ****   *         baudrate for the communication peripherals or configure other parameters.
1121:Drivers/STM32G0xx_HAL_Driver/Src/stm32g0xx_hal_rcc.c ****   *
1122:Drivers/STM32G0xx_HAL_Driver/Src/stm32g0xx_hal_rcc.c ****   * @note   Each time SYSCLK changes, this function must be called to update the
1123:Drivers/STM32G0xx_HAL_Driver/Src/stm32g0xx_hal_rcc.c ****   *         right SYSCLK value. Otherwise, any configuration based on this function will be incorre
1124:Drivers/STM32G0xx_HAL_Driver/Src/stm32g0xx_hal_rcc.c ****   *
1125:Drivers/STM32G0xx_HAL_Driver/Src/stm32g0xx_hal_rcc.c ****   *
1126:Drivers/STM32G0xx_HAL_Driver/Src/stm32g0xx_hal_rcc.c ****   * @retval SYSCLK frequency
1127:Drivers/STM32G0xx_HAL_Driver/Src/stm32g0xx_hal_rcc.c ****   */
1128:Drivers/STM32G0xx_HAL_Driver/Src/stm32g0xx_hal_rcc.c **** uint32_t HAL_RCC_GetSysClockFreq(void)
1129:Drivers/STM32G0xx_HAL_Driver/Src/stm32g0xx_hal_rcc.c **** {
 1425              		.loc 1 1129 1 is_stmt 1 view -0
 1426              		.cfi_startproc
 1427              		@ args = 0, pretend = 0, frame = 0
 1428              		@ frame_needed = 0, uses_anonymous_args = 0
 1429 0000 10B5     		push	{r4, lr}
 1430              	.LCFI5:
 1431              		.cfi_def_cfa_offset 8
 1432              		.cfi_offset 4, -8
 1433              		.cfi_offset 14, -4
1130:Drivers/STM32G0xx_HAL_Driver/Src/stm32g0xx_hal_rcc.c ****   uint32_t pllvco, pllsource, pllr, pllm, hsidiv;
 1434              		.loc 1 1130 3 view .LVU436
1131:Drivers/STM32G0xx_HAL_Driver/Src/stm32g0xx_hal_rcc.c ****   uint32_t sysclockfreq;
 1435              		.loc 1 1131 3 view .LVU437
1132:Drivers/STM32G0xx_HAL_Driver/Src/stm32g0xx_hal_rcc.c **** 
1133:Drivers/STM32G0xx_HAL_Driver/Src/stm32g0xx_hal_rcc.c ****   if (__HAL_RCC_GET_SYSCLK_SOURCE() == RCC_SYSCLKSOURCE_STATUS_HSI)
 1436              		.loc 1 1133 3 view .LVU438
 1437              		.loc 1 1133 7 is_stmt 0 view .LVU439
 1438 0002 2A4B     		ldr	r3, .L136
 1439 0004 9B68     		ldr	r3, [r3, #8]
 1440 0006 3822     		movs	r2, #56
 1441              		.loc 1 1133 6 view .LVU440
 1442 0008 1A42     		tst	r2, r3
 1443 000a 07D1     		bne	.L125
1134:Drivers/STM32G0xx_HAL_Driver/Src/stm32g0xx_hal_rcc.c ****   {
1135:Drivers/STM32G0xx_HAL_Driver/Src/stm32g0xx_hal_rcc.c ****     /* HSISYS can be derived for HSI16 */
1136:Drivers/STM32G0xx_HAL_Driver/Src/stm32g0xx_hal_rcc.c ****     hsidiv = (1UL << ((READ_BIT(RCC->CR, RCC_CR_HSIDIV)) >> RCC_CR_HSIDIV_Pos));
 1444              		.loc 1 1136 5 is_stmt 1 view .LVU441
 1445              		.loc 1 1136 24 is_stmt 0 view .LVU442
 1446 000c 274B     		ldr	r3, .L136
 1447 000e 1A68     		ldr	r2, [r3]
 1448              		.loc 1 1136 58 view .LVU443
 1449 0010 D20A     		lsrs	r2, r2, #11
 1450 0012 0723     		movs	r3, #7
 1451 0014 1340     		ands	r3, r2
 1452              	.LVL110:
1137:Drivers/STM32G0xx_HAL_Driver/Src/stm32g0xx_hal_rcc.c **** 
1138:Drivers/STM32G0xx_HAL_Driver/Src/stm32g0xx_hal_rcc.c ****     /* HSI used as system clock source */
1139:Drivers/STM32G0xx_HAL_Driver/Src/stm32g0xx_hal_rcc.c ****     sysclockfreq = (HSI_VALUE / hsidiv);
 1453              		.loc 1 1139 5 is_stmt 1 view .LVU444
 1454              		.loc 1 1139 18 is_stmt 0 view .LVU445
 1455 0016 2648     		ldr	r0, .L136+4
 1456 0018 D840     		lsrs	r0, r0, r3
 1457              	.LVL111:
 1458              	.L124:
1140:Drivers/STM32G0xx_HAL_Driver/Src/stm32g0xx_hal_rcc.c ****   }
ARM GAS  C:\Users\tugru\AppData\Local\Temp\ccZeWSML.s 			page 50


1141:Drivers/STM32G0xx_HAL_Driver/Src/stm32g0xx_hal_rcc.c ****   else if (__HAL_RCC_GET_SYSCLK_SOURCE() == RCC_SYSCLKSOURCE_STATUS_HSE)
1142:Drivers/STM32G0xx_HAL_Driver/Src/stm32g0xx_hal_rcc.c ****   {
1143:Drivers/STM32G0xx_HAL_Driver/Src/stm32g0xx_hal_rcc.c ****     /* HSE used as system clock source */
1144:Drivers/STM32G0xx_HAL_Driver/Src/stm32g0xx_hal_rcc.c ****     sysclockfreq = HSE_VALUE;
1145:Drivers/STM32G0xx_HAL_Driver/Src/stm32g0xx_hal_rcc.c ****   }
1146:Drivers/STM32G0xx_HAL_Driver/Src/stm32g0xx_hal_rcc.c ****   else if (__HAL_RCC_GET_SYSCLK_SOURCE() == RCC_SYSCLKSOURCE_STATUS_PLLCLK)
1147:Drivers/STM32G0xx_HAL_Driver/Src/stm32g0xx_hal_rcc.c ****   {
1148:Drivers/STM32G0xx_HAL_Driver/Src/stm32g0xx_hal_rcc.c ****     /* PLL used as system clock  source */
1149:Drivers/STM32G0xx_HAL_Driver/Src/stm32g0xx_hal_rcc.c **** 
1150:Drivers/STM32G0xx_HAL_Driver/Src/stm32g0xx_hal_rcc.c ****     /* PLL_VCO = ((HSE_VALUE or HSI_VALUE)/ PLLM) * PLLN
1151:Drivers/STM32G0xx_HAL_Driver/Src/stm32g0xx_hal_rcc.c ****     SYSCLK = PLL_VCO / PLLR
1152:Drivers/STM32G0xx_HAL_Driver/Src/stm32g0xx_hal_rcc.c ****     */
1153:Drivers/STM32G0xx_HAL_Driver/Src/stm32g0xx_hal_rcc.c ****     pllsource = (RCC->PLLCFGR & RCC_PLLCFGR_PLLSRC);
1154:Drivers/STM32G0xx_HAL_Driver/Src/stm32g0xx_hal_rcc.c ****     pllm = ((RCC->PLLCFGR & RCC_PLLCFGR_PLLM) >> RCC_PLLCFGR_PLLM_Pos) + 1U ;
1155:Drivers/STM32G0xx_HAL_Driver/Src/stm32g0xx_hal_rcc.c **** 
1156:Drivers/STM32G0xx_HAL_Driver/Src/stm32g0xx_hal_rcc.c ****     switch (pllsource)
1157:Drivers/STM32G0xx_HAL_Driver/Src/stm32g0xx_hal_rcc.c ****     {
1158:Drivers/STM32G0xx_HAL_Driver/Src/stm32g0xx_hal_rcc.c ****       case RCC_PLLSOURCE_HSE:  /* HSE used as PLL clock source */
1159:Drivers/STM32G0xx_HAL_Driver/Src/stm32g0xx_hal_rcc.c ****         pllvco = (HSE_VALUE / pllm) * ((RCC->PLLCFGR & RCC_PLLCFGR_PLLN) >> RCC_PLLCFGR_PLLN_Pos);
1160:Drivers/STM32G0xx_HAL_Driver/Src/stm32g0xx_hal_rcc.c ****         break;
1161:Drivers/STM32G0xx_HAL_Driver/Src/stm32g0xx_hal_rcc.c **** 
1162:Drivers/STM32G0xx_HAL_Driver/Src/stm32g0xx_hal_rcc.c ****       case RCC_PLLSOURCE_HSI:  /* HSI16 used as PLL clock source */
1163:Drivers/STM32G0xx_HAL_Driver/Src/stm32g0xx_hal_rcc.c ****       default:                 /* HSI16 used as PLL clock source */
1164:Drivers/STM32G0xx_HAL_Driver/Src/stm32g0xx_hal_rcc.c ****         pllvco = (HSI_VALUE / pllm) * ((RCC->PLLCFGR & RCC_PLLCFGR_PLLN) >> RCC_PLLCFGR_PLLN_Pos) ;
1165:Drivers/STM32G0xx_HAL_Driver/Src/stm32g0xx_hal_rcc.c ****         break;
1166:Drivers/STM32G0xx_HAL_Driver/Src/stm32g0xx_hal_rcc.c ****     }
1167:Drivers/STM32G0xx_HAL_Driver/Src/stm32g0xx_hal_rcc.c ****     pllr = (((RCC->PLLCFGR & RCC_PLLCFGR_PLLR) >> RCC_PLLCFGR_PLLR_Pos) + 1U);
1168:Drivers/STM32G0xx_HAL_Driver/Src/stm32g0xx_hal_rcc.c ****     sysclockfreq = pllvco / pllr;
1169:Drivers/STM32G0xx_HAL_Driver/Src/stm32g0xx_hal_rcc.c ****   }
1170:Drivers/STM32G0xx_HAL_Driver/Src/stm32g0xx_hal_rcc.c ****   else if (__HAL_RCC_GET_SYSCLK_SOURCE() == RCC_SYSCLKSOURCE_STATUS_LSE)
1171:Drivers/STM32G0xx_HAL_Driver/Src/stm32g0xx_hal_rcc.c ****   {
1172:Drivers/STM32G0xx_HAL_Driver/Src/stm32g0xx_hal_rcc.c ****     /* LSE used as system clock source */
1173:Drivers/STM32G0xx_HAL_Driver/Src/stm32g0xx_hal_rcc.c ****     sysclockfreq = LSE_VALUE;
1174:Drivers/STM32G0xx_HAL_Driver/Src/stm32g0xx_hal_rcc.c ****   }
1175:Drivers/STM32G0xx_HAL_Driver/Src/stm32g0xx_hal_rcc.c ****   else if (__HAL_RCC_GET_SYSCLK_SOURCE() == RCC_SYSCLKSOURCE_STATUS_LSI)
1176:Drivers/STM32G0xx_HAL_Driver/Src/stm32g0xx_hal_rcc.c ****   {
1177:Drivers/STM32G0xx_HAL_Driver/Src/stm32g0xx_hal_rcc.c ****     /* LSI used as system clock source */
1178:Drivers/STM32G0xx_HAL_Driver/Src/stm32g0xx_hal_rcc.c ****     sysclockfreq = LSI_VALUE;
1179:Drivers/STM32G0xx_HAL_Driver/Src/stm32g0xx_hal_rcc.c ****   }
1180:Drivers/STM32G0xx_HAL_Driver/Src/stm32g0xx_hal_rcc.c ****   else
1181:Drivers/STM32G0xx_HAL_Driver/Src/stm32g0xx_hal_rcc.c ****   {
1182:Drivers/STM32G0xx_HAL_Driver/Src/stm32g0xx_hal_rcc.c ****     sysclockfreq = 0U;
1183:Drivers/STM32G0xx_HAL_Driver/Src/stm32g0xx_hal_rcc.c ****   }
1184:Drivers/STM32G0xx_HAL_Driver/Src/stm32g0xx_hal_rcc.c **** 
1185:Drivers/STM32G0xx_HAL_Driver/Src/stm32g0xx_hal_rcc.c ****   return sysclockfreq;
1186:Drivers/STM32G0xx_HAL_Driver/Src/stm32g0xx_hal_rcc.c **** }
 1459              		.loc 1 1186 1 view .LVU446
 1460              		@ sp needed
 1461 001a 10BD     		pop	{r4, pc}
 1462              	.L125:
1141:Drivers/STM32G0xx_HAL_Driver/Src/stm32g0xx_hal_rcc.c ****   {
 1463              		.loc 1 1141 8 is_stmt 1 view .LVU447
1141:Drivers/STM32G0xx_HAL_Driver/Src/stm32g0xx_hal_rcc.c ****   {
 1464              		.loc 1 1141 12 is_stmt 0 view .LVU448
 1465 001c 234B     		ldr	r3, .L136
 1466 001e 9A68     		ldr	r2, [r3, #8]
 1467 0020 3823     		movs	r3, #56
ARM GAS  C:\Users\tugru\AppData\Local\Temp\ccZeWSML.s 			page 51


 1468 0022 1340     		ands	r3, r2
1141:Drivers/STM32G0xx_HAL_Driver/Src/stm32g0xx_hal_rcc.c ****   {
 1469              		.loc 1 1141 11 view .LVU449
 1470 0024 082B     		cmp	r3, #8
 1471 0026 3BD0     		beq	.L130
1146:Drivers/STM32G0xx_HAL_Driver/Src/stm32g0xx_hal_rcc.c ****   {
 1472              		.loc 1 1146 8 is_stmt 1 view .LVU450
1146:Drivers/STM32G0xx_HAL_Driver/Src/stm32g0xx_hal_rcc.c ****   {
 1473              		.loc 1 1146 12 is_stmt 0 view .LVU451
 1474 0028 204B     		ldr	r3, .L136
 1475 002a 9A68     		ldr	r2, [r3, #8]
 1476 002c 3823     		movs	r3, #56
 1477 002e 1340     		ands	r3, r2
1146:Drivers/STM32G0xx_HAL_Driver/Src/stm32g0xx_hal_rcc.c ****   {
 1478              		.loc 1 1146 11 view .LVU452
 1479 0030 102B     		cmp	r3, #16
 1480 0032 0DD0     		beq	.L133
1170:Drivers/STM32G0xx_HAL_Driver/Src/stm32g0xx_hal_rcc.c ****   {
 1481              		.loc 1 1170 8 is_stmt 1 view .LVU453
1170:Drivers/STM32G0xx_HAL_Driver/Src/stm32g0xx_hal_rcc.c ****   {
 1482              		.loc 1 1170 12 is_stmt 0 view .LVU454
 1483 0034 1D4B     		ldr	r3, .L136
 1484 0036 9A68     		ldr	r2, [r3, #8]
 1485 0038 3823     		movs	r3, #56
 1486 003a 1340     		ands	r3, r2
1170:Drivers/STM32G0xx_HAL_Driver/Src/stm32g0xx_hal_rcc.c ****   {
 1487              		.loc 1 1170 11 view .LVU455
 1488 003c 202B     		cmp	r3, #32
 1489 003e 31D0     		beq	.L131
1175:Drivers/STM32G0xx_HAL_Driver/Src/stm32g0xx_hal_rcc.c ****   {
 1490              		.loc 1 1175 8 is_stmt 1 view .LVU456
1175:Drivers/STM32G0xx_HAL_Driver/Src/stm32g0xx_hal_rcc.c ****   {
 1491              		.loc 1 1175 12 is_stmt 0 view .LVU457
 1492 0040 1A4B     		ldr	r3, .L136
 1493 0042 9A68     		ldr	r2, [r3, #8]
 1494 0044 3823     		movs	r3, #56
 1495 0046 1340     		ands	r3, r2
1175:Drivers/STM32G0xx_HAL_Driver/Src/stm32g0xx_hal_rcc.c ****   {
 1496              		.loc 1 1175 11 view .LVU458
 1497 0048 182B     		cmp	r3, #24
 1498 004a 26D0     		beq	.L134
1182:Drivers/STM32G0xx_HAL_Driver/Src/stm32g0xx_hal_rcc.c ****   }
 1499              		.loc 1 1182 18 view .LVU459
 1500 004c 0020     		movs	r0, #0
 1501              	.LVL112:
1185:Drivers/STM32G0xx_HAL_Driver/Src/stm32g0xx_hal_rcc.c **** }
 1502              		.loc 1 1185 3 is_stmt 1 view .LVU460
1185:Drivers/STM32G0xx_HAL_Driver/Src/stm32g0xx_hal_rcc.c **** }
 1503              		.loc 1 1185 10 is_stmt 0 view .LVU461
 1504 004e E4E7     		b	.L124
 1505              	.LVL113:
 1506              	.L133:
1153:Drivers/STM32G0xx_HAL_Driver/Src/stm32g0xx_hal_rcc.c ****     pllm = ((RCC->PLLCFGR & RCC_PLLCFGR_PLLM) >> RCC_PLLCFGR_PLLM_Pos) + 1U ;
 1507              		.loc 1 1153 5 is_stmt 1 view .LVU462
1153:Drivers/STM32G0xx_HAL_Driver/Src/stm32g0xx_hal_rcc.c ****     pllm = ((RCC->PLLCFGR & RCC_PLLCFGR_PLLM) >> RCC_PLLCFGR_PLLM_Pos) + 1U ;
 1508              		.loc 1 1153 21 is_stmt 0 view .LVU463
 1509 0050 164A     		ldr	r2, .L136
ARM GAS  C:\Users\tugru\AppData\Local\Temp\ccZeWSML.s 			page 52


 1510 0052 D168     		ldr	r1, [r2, #12]
1153:Drivers/STM32G0xx_HAL_Driver/Src/stm32g0xx_hal_rcc.c ****     pllm = ((RCC->PLLCFGR & RCC_PLLCFGR_PLLM) >> RCC_PLLCFGR_PLLM_Pos) + 1U ;
 1511              		.loc 1 1153 15 view .LVU464
 1512 0054 0D3B     		subs	r3, r3, #13
 1513 0056 0B40     		ands	r3, r1
 1514              	.LVL114:
1154:Drivers/STM32G0xx_HAL_Driver/Src/stm32g0xx_hal_rcc.c **** 
 1515              		.loc 1 1154 5 is_stmt 1 view .LVU465
1154:Drivers/STM32G0xx_HAL_Driver/Src/stm32g0xx_hal_rcc.c **** 
 1516              		.loc 1 1154 17 is_stmt 0 view .LVU466
 1517 0058 D268     		ldr	r2, [r2, #12]
1154:Drivers/STM32G0xx_HAL_Driver/Src/stm32g0xx_hal_rcc.c **** 
 1518              		.loc 1 1154 47 view .LVU467
 1519 005a 1209     		lsrs	r2, r2, #4
 1520 005c 0721     		movs	r1, #7
 1521 005e 1140     		ands	r1, r2
1154:Drivers/STM32G0xx_HAL_Driver/Src/stm32g0xx_hal_rcc.c **** 
 1522              		.loc 1 1154 10 view .LVU468
 1523 0060 0131     		adds	r1, r1, #1
 1524              	.LVL115:
1156:Drivers/STM32G0xx_HAL_Driver/Src/stm32g0xx_hal_rcc.c ****     {
 1525              		.loc 1 1156 5 is_stmt 1 view .LVU469
 1526 0062 032B     		cmp	r3, #3
 1527 0064 0FD0     		beq	.L135
1164:Drivers/STM32G0xx_HAL_Driver/Src/stm32g0xx_hal_rcc.c ****         break;
 1528              		.loc 1 1164 9 view .LVU470
1164:Drivers/STM32G0xx_HAL_Driver/Src/stm32g0xx_hal_rcc.c ****         break;
 1529              		.loc 1 1164 29 is_stmt 0 view .LVU471
 1530 0066 1248     		ldr	r0, .L136+4
 1531 0068 FFF7FEFF 		bl	__aeabi_uidiv
 1532              	.LVL116:
1164:Drivers/STM32G0xx_HAL_Driver/Src/stm32g0xx_hal_rcc.c ****         break;
 1533              		.loc 1 1164 44 view .LVU472
 1534 006c 0F4B     		ldr	r3, .L136
 1535 006e DA68     		ldr	r2, [r3, #12]
1164:Drivers/STM32G0xx_HAL_Driver/Src/stm32g0xx_hal_rcc.c ****         break;
 1536              		.loc 1 1164 74 view .LVU473
 1537 0070 120A     		lsrs	r2, r2, #8
 1538 0072 7F23     		movs	r3, #127
 1539 0074 1340     		ands	r3, r2
1164:Drivers/STM32G0xx_HAL_Driver/Src/stm32g0xx_hal_rcc.c ****         break;
 1540              		.loc 1 1164 16 view .LVU474
 1541 0076 5843     		muls	r0, r3
 1542              	.LVL117:
1165:Drivers/STM32G0xx_HAL_Driver/Src/stm32g0xx_hal_rcc.c ****     }
 1543              		.loc 1 1165 9 is_stmt 1 view .LVU475
 1544              	.L129:
1167:Drivers/STM32G0xx_HAL_Driver/Src/stm32g0xx_hal_rcc.c ****     sysclockfreq = pllvco / pllr;
 1545              		.loc 1 1167 5 view .LVU476
1167:Drivers/STM32G0xx_HAL_Driver/Src/stm32g0xx_hal_rcc.c ****     sysclockfreq = pllvco / pllr;
 1546              		.loc 1 1167 18 is_stmt 0 view .LVU477
 1547 0078 0C4B     		ldr	r3, .L136
 1548 007a D968     		ldr	r1, [r3, #12]
1167:Drivers/STM32G0xx_HAL_Driver/Src/stm32g0xx_hal_rcc.c ****     sysclockfreq = pllvco / pllr;
 1549              		.loc 1 1167 48 view .LVU478
 1550 007c 490F     		lsrs	r1, r1, #29
1167:Drivers/STM32G0xx_HAL_Driver/Src/stm32g0xx_hal_rcc.c ****     sysclockfreq = pllvco / pllr;
ARM GAS  C:\Users\tugru\AppData\Local\Temp\ccZeWSML.s 			page 53


 1551              		.loc 1 1167 10 view .LVU479
 1552 007e 0131     		adds	r1, r1, #1
 1553              	.LVL118:
1168:Drivers/STM32G0xx_HAL_Driver/Src/stm32g0xx_hal_rcc.c ****   }
 1554              		.loc 1 1168 5 is_stmt 1 view .LVU480
1168:Drivers/STM32G0xx_HAL_Driver/Src/stm32g0xx_hal_rcc.c ****   }
 1555              		.loc 1 1168 18 is_stmt 0 view .LVU481
 1556 0080 FFF7FEFF 		bl	__aeabi_uidiv
 1557              	.LVL119:
1168:Drivers/STM32G0xx_HAL_Driver/Src/stm32g0xx_hal_rcc.c ****   }
 1558              		.loc 1 1168 18 view .LVU482
 1559 0084 C9E7     		b	.L124
 1560              	.LVL120:
 1561              	.L135:
1159:Drivers/STM32G0xx_HAL_Driver/Src/stm32g0xx_hal_rcc.c ****         break;
 1562              		.loc 1 1159 9 is_stmt 1 view .LVU483
1159:Drivers/STM32G0xx_HAL_Driver/Src/stm32g0xx_hal_rcc.c ****         break;
 1563              		.loc 1 1159 29 is_stmt 0 view .LVU484
 1564 0086 0B48     		ldr	r0, .L136+8
 1565 0088 FFF7FEFF 		bl	__aeabi_uidiv
 1566              	.LVL121:
1159:Drivers/STM32G0xx_HAL_Driver/Src/stm32g0xx_hal_rcc.c ****         break;
 1567              		.loc 1 1159 44 view .LVU485
 1568 008c 074B     		ldr	r3, .L136
 1569 008e DA68     		ldr	r2, [r3, #12]
1159:Drivers/STM32G0xx_HAL_Driver/Src/stm32g0xx_hal_rcc.c ****         break;
 1570              		.loc 1 1159 74 view .LVU486
 1571 0090 120A     		lsrs	r2, r2, #8
 1572 0092 7F23     		movs	r3, #127
 1573 0094 1340     		ands	r3, r2
1159:Drivers/STM32G0xx_HAL_Driver/Src/stm32g0xx_hal_rcc.c ****         break;
 1574              		.loc 1 1159 16 view .LVU487
 1575 0096 5843     		muls	r0, r3
 1576              	.LVL122:
1160:Drivers/STM32G0xx_HAL_Driver/Src/stm32g0xx_hal_rcc.c **** 
 1577              		.loc 1 1160 9 is_stmt 1 view .LVU488
 1578 0098 EEE7     		b	.L129
 1579              	.LVL123:
 1580              	.L134:
1178:Drivers/STM32G0xx_HAL_Driver/Src/stm32g0xx_hal_rcc.c ****   }
 1581              		.loc 1 1178 18 is_stmt 0 view .LVU489
 1582 009a FA20     		movs	r0, #250
 1583 009c C001     		lsls	r0, r0, #7
 1584 009e BCE7     		b	.L124
 1585              	.L130:
1144:Drivers/STM32G0xx_HAL_Driver/Src/stm32g0xx_hal_rcc.c ****   }
 1586              		.loc 1 1144 18 view .LVU490
 1587 00a0 0448     		ldr	r0, .L136+8
 1588 00a2 BAE7     		b	.L124
 1589              	.L131:
1173:Drivers/STM32G0xx_HAL_Driver/Src/stm32g0xx_hal_rcc.c ****   }
 1590              		.loc 1 1173 18 view .LVU491
 1591 00a4 8020     		movs	r0, #128
 1592 00a6 0002     		lsls	r0, r0, #8
 1593 00a8 B7E7     		b	.L124
 1594              	.L137:
 1595 00aa C046     		.align	2
ARM GAS  C:\Users\tugru\AppData\Local\Temp\ccZeWSML.s 			page 54


 1596              	.L136:
 1597 00ac 00100240 		.word	1073876992
 1598 00b0 0024F400 		.word	16000000
 1599 00b4 00127A00 		.word	8000000
 1600              		.cfi_endproc
 1601              	.LFE314:
 1603              		.section	.text.HAL_RCC_ClockConfig,"ax",%progbits
 1604              		.align	1
 1605              		.global	HAL_RCC_ClockConfig
 1606              		.syntax unified
 1607              		.code	16
 1608              		.thumb_func
 1610              	HAL_RCC_ClockConfig:
 1611              	.LVL124:
 1612              	.LFB312:
 806:Drivers/STM32G0xx_HAL_Driver/Src/stm32g0xx_hal_rcc.c ****   uint32_t tickstart;
 1613              		.loc 1 806 1 is_stmt 1 view -0
 1614              		.cfi_startproc
 1615              		@ args = 0, pretend = 0, frame = 0
 1616              		@ frame_needed = 0, uses_anonymous_args = 0
 806:Drivers/STM32G0xx_HAL_Driver/Src/stm32g0xx_hal_rcc.c ****   uint32_t tickstart;
 1617              		.loc 1 806 1 is_stmt 0 view .LVU493
 1618 0000 70B5     		push	{r4, r5, r6, lr}
 1619              	.LCFI6:
 1620              		.cfi_def_cfa_offset 16
 1621              		.cfi_offset 4, -16
 1622              		.cfi_offset 5, -12
 1623              		.cfi_offset 6, -8
 1624              		.cfi_offset 14, -4
 1625 0002 0400     		movs	r4, r0
 1626 0004 0D00     		movs	r5, r1
 807:Drivers/STM32G0xx_HAL_Driver/Src/stm32g0xx_hal_rcc.c **** 
 1627              		.loc 1 807 3 is_stmt 1 view .LVU494
 810:Drivers/STM32G0xx_HAL_Driver/Src/stm32g0xx_hal_rcc.c ****   {
 1628              		.loc 1 810 3 view .LVU495
 810:Drivers/STM32G0xx_HAL_Driver/Src/stm32g0xx_hal_rcc.c ****   {
 1629              		.loc 1 810 6 is_stmt 0 view .LVU496
 1630 0006 0028     		cmp	r0, #0
 1631 0008 00D1     		bne	.LCB1559
 1632 000a AAE0     		b	.L157	@long jump
 1633              	.LCB1559:
 816:Drivers/STM32G0xx_HAL_Driver/Src/stm32g0xx_hal_rcc.c ****   assert_param(IS_FLASH_LATENCY(FLatency));
 1634              		.loc 1 816 3 is_stmt 1 view .LVU497
 817:Drivers/STM32G0xx_HAL_Driver/Src/stm32g0xx_hal_rcc.c **** 
 1635              		.loc 1 817 3 view .LVU498
 824:Drivers/STM32G0xx_HAL_Driver/Src/stm32g0xx_hal_rcc.c ****   {
 1636              		.loc 1 824 3 view .LVU499
 824:Drivers/STM32G0xx_HAL_Driver/Src/stm32g0xx_hal_rcc.c ****   {
 1637              		.loc 1 824 18 is_stmt 0 view .LVU500
 1638 000c 574B     		ldr	r3, .L172
 1639 000e 1A68     		ldr	r2, [r3]
 1640 0010 0723     		movs	r3, #7
 1641 0012 1340     		ands	r3, r2
 824:Drivers/STM32G0xx_HAL_Driver/Src/stm32g0xx_hal_rcc.c ****   {
 1642              		.loc 1 824 6 view .LVU501
 1643 0014 8B42     		cmp	r3, r1
 1644 0016 21D3     		bcc	.L166
ARM GAS  C:\Users\tugru\AppData\Local\Temp\ccZeWSML.s 			page 55


 1645              	.LVL125:
 1646              	.L140:
 843:Drivers/STM32G0xx_HAL_Driver/Src/stm32g0xx_hal_rcc.c ****   {
 1647              		.loc 1 843 3 is_stmt 1 view .LVU502
 843:Drivers/STM32G0xx_HAL_Driver/Src/stm32g0xx_hal_rcc.c ****   {
 1648              		.loc 1 843 26 is_stmt 0 view .LVU503
 1649 0018 2368     		ldr	r3, [r4]
 843:Drivers/STM32G0xx_HAL_Driver/Src/stm32g0xx_hal_rcc.c ****   {
 1650              		.loc 1 843 6 view .LVU504
 1651 001a 9A07     		lsls	r2, r3, #30
 1652 001c 0ED5     		bpl	.L143
 847:Drivers/STM32G0xx_HAL_Driver/Src/stm32g0xx_hal_rcc.c ****     {
 1653              		.loc 1 847 5 is_stmt 1 view .LVU505
 847:Drivers/STM32G0xx_HAL_Driver/Src/stm32g0xx_hal_rcc.c ****     {
 1654              		.loc 1 847 8 is_stmt 0 view .LVU506
 1655 001e 5B07     		lsls	r3, r3, #29
 1656 0020 05D5     		bpl	.L144
 849:Drivers/STM32G0xx_HAL_Driver/Src/stm32g0xx_hal_rcc.c ****     }
 1657              		.loc 1 849 7 is_stmt 1 view .LVU507
 1658 0022 534A     		ldr	r2, .L172+4
 1659 0024 9168     		ldr	r1, [r2, #8]
 1660 0026 E023     		movs	r3, #224
 1661 0028 DB01     		lsls	r3, r3, #7
 1662 002a 0B43     		orrs	r3, r1
 1663 002c 9360     		str	r3, [r2, #8]
 1664              	.L144:
 853:Drivers/STM32G0xx_HAL_Driver/Src/stm32g0xx_hal_rcc.c ****     MODIFY_REG(RCC->CFGR, RCC_CFGR_HPRE, RCC_ClkInitStruct->AHBCLKDivider);
 1665              		.loc 1 853 5 view .LVU508
 854:Drivers/STM32G0xx_HAL_Driver/Src/stm32g0xx_hal_rcc.c ****   }
 1666              		.loc 1 854 5 view .LVU509
 1667 002e 504A     		ldr	r2, .L172+4
 1668 0030 9368     		ldr	r3, [r2, #8]
 1669 0032 5049     		ldr	r1, .L172+8
 1670 0034 0B40     		ands	r3, r1
 1671 0036 A168     		ldr	r1, [r4, #8]
 1672 0038 0B43     		orrs	r3, r1
 1673 003a 9360     		str	r3, [r2, #8]
 1674              	.L143:
 858:Drivers/STM32G0xx_HAL_Driver/Src/stm32g0xx_hal_rcc.c ****   {
 1675              		.loc 1 858 3 view .LVU510
 858:Drivers/STM32G0xx_HAL_Driver/Src/stm32g0xx_hal_rcc.c ****   {
 1676              		.loc 1 858 6 is_stmt 0 view .LVU511
 1677 003c 2368     		ldr	r3, [r4]
 1678 003e DB07     		lsls	r3, r3, #31
 1679 0040 54D5     		bpl	.L145
 860:Drivers/STM32G0xx_HAL_Driver/Src/stm32g0xx_hal_rcc.c **** 
 1680              		.loc 1 860 5 is_stmt 1 view .LVU512
 863:Drivers/STM32G0xx_HAL_Driver/Src/stm32g0xx_hal_rcc.c ****     {
 1681              		.loc 1 863 5 view .LVU513
 863:Drivers/STM32G0xx_HAL_Driver/Src/stm32g0xx_hal_rcc.c ****     {
 1682              		.loc 1 863 26 is_stmt 0 view .LVU514
 1683 0042 6368     		ldr	r3, [r4, #4]
 863:Drivers/STM32G0xx_HAL_Driver/Src/stm32g0xx_hal_rcc.c ****     {
 1684              		.loc 1 863 8 view .LVU515
 1685 0044 012B     		cmp	r3, #1
 1686 0046 20D0     		beq	.L167
 872:Drivers/STM32G0xx_HAL_Driver/Src/stm32g0xx_hal_rcc.c ****     {
ARM GAS  C:\Users\tugru\AppData\Local\Temp\ccZeWSML.s 			page 56


 1687              		.loc 1 872 10 is_stmt 1 view .LVU516
 872:Drivers/STM32G0xx_HAL_Driver/Src/stm32g0xx_hal_rcc.c ****     {
 1688              		.loc 1 872 13 is_stmt 0 view .LVU517
 1689 0048 022B     		cmp	r3, #2
 1690 004a 3BD0     		beq	.L168
 881:Drivers/STM32G0xx_HAL_Driver/Src/stm32g0xx_hal_rcc.c ****     {
 1691              		.loc 1 881 10 is_stmt 1 view .LVU518
 881:Drivers/STM32G0xx_HAL_Driver/Src/stm32g0xx_hal_rcc.c ****     {
 1692              		.loc 1 881 13 is_stmt 0 view .LVU519
 1693 004c 002B     		cmp	r3, #0
 1694 004e 3FD1     		bne	.L149
 884:Drivers/STM32G0xx_HAL_Driver/Src/stm32g0xx_hal_rcc.c ****       {
 1695              		.loc 1 884 7 is_stmt 1 view .LVU520
 884:Drivers/STM32G0xx_HAL_Driver/Src/stm32g0xx_hal_rcc.c ****       {
 1696              		.loc 1 884 11 is_stmt 0 view .LVU521
 1697 0050 474A     		ldr	r2, .L172+4
 1698 0052 1268     		ldr	r2, [r2]
 884:Drivers/STM32G0xx_HAL_Driver/Src/stm32g0xx_hal_rcc.c ****       {
 1699              		.loc 1 884 10 view .LVU522
 1700 0054 5205     		lsls	r2, r2, #21
 1701 0056 1CD4     		bmi	.L147
 886:Drivers/STM32G0xx_HAL_Driver/Src/stm32g0xx_hal_rcc.c ****       }
 1702              		.loc 1 886 16 view .LVU523
 1703 0058 0120     		movs	r0, #1
 1704 005a 6AE0     		b	.L139
 1705              	.LVL126:
 1706              	.L166:
 827:Drivers/STM32G0xx_HAL_Driver/Src/stm32g0xx_hal_rcc.c **** 
 1707              		.loc 1 827 5 is_stmt 1 view .LVU524
 1708 005c 434A     		ldr	r2, .L172
 1709 005e 1368     		ldr	r3, [r2]
 1710 0060 0721     		movs	r1, #7
 1711              	.LVL127:
 827:Drivers/STM32G0xx_HAL_Driver/Src/stm32g0xx_hal_rcc.c **** 
 1712              		.loc 1 827 5 is_stmt 0 view .LVU525
 1713 0062 8B43     		bics	r3, r1
 1714 0064 2B43     		orrs	r3, r5
 1715 0066 1360     		str	r3, [r2]
 831:Drivers/STM32G0xx_HAL_Driver/Src/stm32g0xx_hal_rcc.c **** 
 1716              		.loc 1 831 5 is_stmt 1 view .LVU526
 831:Drivers/STM32G0xx_HAL_Driver/Src/stm32g0xx_hal_rcc.c **** 
 1717              		.loc 1 831 17 is_stmt 0 view .LVU527
 1718 0068 FFF7FEFF 		bl	HAL_GetTick
 1719              	.LVL128:
 831:Drivers/STM32G0xx_HAL_Driver/Src/stm32g0xx_hal_rcc.c **** 
 1720              		.loc 1 831 17 view .LVU528
 1721 006c 0600     		movs	r6, r0
 1722              	.LVL129:
 833:Drivers/STM32G0xx_HAL_Driver/Src/stm32g0xx_hal_rcc.c ****     {
 1723              		.loc 1 833 5 is_stmt 1 view .LVU529
 1724              	.L141:
 833:Drivers/STM32G0xx_HAL_Driver/Src/stm32g0xx_hal_rcc.c ****     {
 1725              		.loc 1 833 11 view .LVU530
 833:Drivers/STM32G0xx_HAL_Driver/Src/stm32g0xx_hal_rcc.c ****     {
 1726              		.loc 1 833 18 is_stmt 0 view .LVU531
 1727 006e 3F4B     		ldr	r3, .L172
 1728 0070 1A68     		ldr	r2, [r3]
ARM GAS  C:\Users\tugru\AppData\Local\Temp\ccZeWSML.s 			page 57


 833:Drivers/STM32G0xx_HAL_Driver/Src/stm32g0xx_hal_rcc.c ****     {
 1729              		.loc 1 833 24 view .LVU532
 1730 0072 0723     		movs	r3, #7
 1731 0074 1340     		ands	r3, r2
 833:Drivers/STM32G0xx_HAL_Driver/Src/stm32g0xx_hal_rcc.c ****     {
 1732              		.loc 1 833 11 view .LVU533
 1733 0076 AB42     		cmp	r3, r5
 1734 0078 CED0     		beq	.L140
 835:Drivers/STM32G0xx_HAL_Driver/Src/stm32g0xx_hal_rcc.c ****       {
 1735              		.loc 1 835 7 is_stmt 1 view .LVU534
 835:Drivers/STM32G0xx_HAL_Driver/Src/stm32g0xx_hal_rcc.c ****       {
 1736              		.loc 1 835 12 is_stmt 0 view .LVU535
 1737 007a FFF7FEFF 		bl	HAL_GetTick
 1738              	.LVL130:
 835:Drivers/STM32G0xx_HAL_Driver/Src/stm32g0xx_hal_rcc.c ****       {
 1739              		.loc 1 835 26 view .LVU536
 1740 007e 801B     		subs	r0, r0, r6
 835:Drivers/STM32G0xx_HAL_Driver/Src/stm32g0xx_hal_rcc.c ****       {
 1741              		.loc 1 835 10 view .LVU537
 1742 0080 3D4A     		ldr	r2, .L172+12
 1743 0082 9042     		cmp	r0, r2
 1744 0084 F3D9     		bls	.L141
 837:Drivers/STM32G0xx_HAL_Driver/Src/stm32g0xx_hal_rcc.c ****       }
 1745              		.loc 1 837 16 view .LVU538
 1746 0086 0320     		movs	r0, #3
 1747 0088 53E0     		b	.L139
 1748              	.LVL131:
 1749              	.L167:
 866:Drivers/STM32G0xx_HAL_Driver/Src/stm32g0xx_hal_rcc.c ****       {
 1750              		.loc 1 866 7 is_stmt 1 view .LVU539
 866:Drivers/STM32G0xx_HAL_Driver/Src/stm32g0xx_hal_rcc.c ****       {
 1751              		.loc 1 866 11 is_stmt 0 view .LVU540
 1752 008a 394A     		ldr	r2, .L172+4
 1753 008c 1268     		ldr	r2, [r2]
 866:Drivers/STM32G0xx_HAL_Driver/Src/stm32g0xx_hal_rcc.c ****       {
 1754              		.loc 1 866 10 view .LVU541
 1755 008e 9203     		lsls	r2, r2, #14
 1756 0090 69D5     		bpl	.L169
 1757              	.L147:
 907:Drivers/STM32G0xx_HAL_Driver/Src/stm32g0xx_hal_rcc.c **** 
 1758              		.loc 1 907 5 is_stmt 1 view .LVU542
 1759 0092 3749     		ldr	r1, .L172+4
 1760 0094 8A68     		ldr	r2, [r1, #8]
 1761 0096 0720     		movs	r0, #7
 1762 0098 8243     		bics	r2, r0
 1763 009a 1343     		orrs	r3, r2
 1764 009c 8B60     		str	r3, [r1, #8]
 910:Drivers/STM32G0xx_HAL_Driver/Src/stm32g0xx_hal_rcc.c **** 
 1765              		.loc 1 910 5 view .LVU543
 910:Drivers/STM32G0xx_HAL_Driver/Src/stm32g0xx_hal_rcc.c **** 
 1766              		.loc 1 910 17 is_stmt 0 view .LVU544
 1767 009e FFF7FEFF 		bl	HAL_GetTick
 1768              	.LVL132:
 1769 00a2 0600     		movs	r6, r0
 1770              	.LVL133:
 912:Drivers/STM32G0xx_HAL_Driver/Src/stm32g0xx_hal_rcc.c ****     {
 1771              		.loc 1 912 5 is_stmt 1 view .LVU545
ARM GAS  C:\Users\tugru\AppData\Local\Temp\ccZeWSML.s 			page 58


 1772              	.L151:
 912:Drivers/STM32G0xx_HAL_Driver/Src/stm32g0xx_hal_rcc.c ****     {
 1773              		.loc 1 912 11 view .LVU546
 912:Drivers/STM32G0xx_HAL_Driver/Src/stm32g0xx_hal_rcc.c ****     {
 1774              		.loc 1 912 12 is_stmt 0 view .LVU547
 1775 00a4 324B     		ldr	r3, .L172+4
 1776 00a6 9B68     		ldr	r3, [r3, #8]
 1777 00a8 3822     		movs	r2, #56
 1778 00aa 1A40     		ands	r2, r3
 912:Drivers/STM32G0xx_HAL_Driver/Src/stm32g0xx_hal_rcc.c ****     {
 1779              		.loc 1 912 78 view .LVU548
 1780 00ac 6368     		ldr	r3, [r4, #4]
 1781 00ae DB00     		lsls	r3, r3, #3
 912:Drivers/STM32G0xx_HAL_Driver/Src/stm32g0xx_hal_rcc.c ****     {
 1782              		.loc 1 912 11 view .LVU549
 1783 00b0 9A42     		cmp	r2, r3
 1784 00b2 1BD0     		beq	.L145
 914:Drivers/STM32G0xx_HAL_Driver/Src/stm32g0xx_hal_rcc.c ****       {
 1785              		.loc 1 914 7 is_stmt 1 view .LVU550
 914:Drivers/STM32G0xx_HAL_Driver/Src/stm32g0xx_hal_rcc.c ****       {
 1786              		.loc 1 914 12 is_stmt 0 view .LVU551
 1787 00b4 FFF7FEFF 		bl	HAL_GetTick
 1788              	.LVL134:
 914:Drivers/STM32G0xx_HAL_Driver/Src/stm32g0xx_hal_rcc.c ****       {
 1789              		.loc 1 914 26 view .LVU552
 1790 00b8 801B     		subs	r0, r0, r6
 914:Drivers/STM32G0xx_HAL_Driver/Src/stm32g0xx_hal_rcc.c ****       {
 1791              		.loc 1 914 10 view .LVU553
 1792 00ba 2F4B     		ldr	r3, .L172+12
 1793 00bc 9842     		cmp	r0, r3
 1794 00be F1D9     		bls	.L151
 916:Drivers/STM32G0xx_HAL_Driver/Src/stm32g0xx_hal_rcc.c ****       }
 1795              		.loc 1 916 16 view .LVU554
 1796 00c0 0320     		movs	r0, #3
 1797 00c2 36E0     		b	.L139
 1798              	.LVL135:
 1799              	.L168:
 875:Drivers/STM32G0xx_HAL_Driver/Src/stm32g0xx_hal_rcc.c ****       {
 1800              		.loc 1 875 7 is_stmt 1 view .LVU555
 875:Drivers/STM32G0xx_HAL_Driver/Src/stm32g0xx_hal_rcc.c ****       {
 1801              		.loc 1 875 11 is_stmt 0 view .LVU556
 1802 00c4 2A4A     		ldr	r2, .L172+4
 1803 00c6 1268     		ldr	r2, [r2]
 875:Drivers/STM32G0xx_HAL_Driver/Src/stm32g0xx_hal_rcc.c ****       {
 1804              		.loc 1 875 10 view .LVU557
 1805 00c8 9201     		lsls	r2, r2, #6
 1806 00ca E2D4     		bmi	.L147
 877:Drivers/STM32G0xx_HAL_Driver/Src/stm32g0xx_hal_rcc.c ****       }
 1807              		.loc 1 877 16 view .LVU558
 1808 00cc 0120     		movs	r0, #1
 1809 00ce 30E0     		b	.L139
 1810              	.L149:
 890:Drivers/STM32G0xx_HAL_Driver/Src/stm32g0xx_hal_rcc.c ****     {
 1811              		.loc 1 890 10 is_stmt 1 view .LVU559
 890:Drivers/STM32G0xx_HAL_Driver/Src/stm32g0xx_hal_rcc.c ****     {
 1812              		.loc 1 890 13 is_stmt 0 view .LVU560
 1813 00d0 032B     		cmp	r3, #3
ARM GAS  C:\Users\tugru\AppData\Local\Temp\ccZeWSML.s 			page 59


 1814 00d2 05D0     		beq	.L170
 902:Drivers/STM32G0xx_HAL_Driver/Src/stm32g0xx_hal_rcc.c ****       {
 1815              		.loc 1 902 7 is_stmt 1 view .LVU561
 902:Drivers/STM32G0xx_HAL_Driver/Src/stm32g0xx_hal_rcc.c ****       {
 1816              		.loc 1 902 11 is_stmt 0 view .LVU562
 1817 00d4 264A     		ldr	r2, .L172+4
 1818 00d6 D26D     		ldr	r2, [r2, #92]
 902:Drivers/STM32G0xx_HAL_Driver/Src/stm32g0xx_hal_rcc.c ****       {
 1819              		.loc 1 902 10 view .LVU563
 1820 00d8 9207     		lsls	r2, r2, #30
 1821 00da DAD4     		bmi	.L147
 904:Drivers/STM32G0xx_HAL_Driver/Src/stm32g0xx_hal_rcc.c ****       }
 1822              		.loc 1 904 16 view .LVU564
 1823 00dc 0120     		movs	r0, #1
 1824 00de 28E0     		b	.L139
 1825              	.L170:
 893:Drivers/STM32G0xx_HAL_Driver/Src/stm32g0xx_hal_rcc.c ****       {
 1826              		.loc 1 893 7 is_stmt 1 view .LVU565
 893:Drivers/STM32G0xx_HAL_Driver/Src/stm32g0xx_hal_rcc.c ****       {
 1827              		.loc 1 893 11 is_stmt 0 view .LVU566
 1828 00e0 234A     		ldr	r2, .L172+4
 1829 00e2 126E     		ldr	r2, [r2, #96]
 893:Drivers/STM32G0xx_HAL_Driver/Src/stm32g0xx_hal_rcc.c ****       {
 1830              		.loc 1 893 10 view .LVU567
 1831 00e4 9207     		lsls	r2, r2, #30
 1832 00e6 D4D4     		bmi	.L147
 895:Drivers/STM32G0xx_HAL_Driver/Src/stm32g0xx_hal_rcc.c ****       }
 1833              		.loc 1 895 16 view .LVU568
 1834 00e8 0120     		movs	r0, #1
 1835 00ea 22E0     		b	.L139
 1836              	.L145:
 922:Drivers/STM32G0xx_HAL_Driver/Src/stm32g0xx_hal_rcc.c ****   {
 1837              		.loc 1 922 3 is_stmt 1 view .LVU569
 922:Drivers/STM32G0xx_HAL_Driver/Src/stm32g0xx_hal_rcc.c ****   {
 1838              		.loc 1 922 18 is_stmt 0 view .LVU570
 1839 00ec 1F4B     		ldr	r3, .L172
 1840 00ee 1A68     		ldr	r2, [r3]
 1841 00f0 0723     		movs	r3, #7
 1842 00f2 1340     		ands	r3, r2
 922:Drivers/STM32G0xx_HAL_Driver/Src/stm32g0xx_hal_rcc.c ****   {
 1843              		.loc 1 922 6 view .LVU571
 1844 00f4 AB42     		cmp	r3, r5
 1845 00f6 1DD8     		bhi	.L171
 1846              	.L153:
 941:Drivers/STM32G0xx_HAL_Driver/Src/stm32g0xx_hal_rcc.c ****   {
 1847              		.loc 1 941 3 is_stmt 1 view .LVU572
 941:Drivers/STM32G0xx_HAL_Driver/Src/stm32g0xx_hal_rcc.c ****   {
 1848              		.loc 1 941 6 is_stmt 0 view .LVU573
 1849 00f8 2368     		ldr	r3, [r4]
 1850 00fa 5B07     		lsls	r3, r3, #29
 1851 00fc 06D5     		bpl	.L156
 943:Drivers/STM32G0xx_HAL_Driver/Src/stm32g0xx_hal_rcc.c ****     MODIFY_REG(RCC->CFGR, RCC_CFGR_PPRE, RCC_ClkInitStruct->APB1CLKDivider);
 1852              		.loc 1 943 5 is_stmt 1 view .LVU574
 944:Drivers/STM32G0xx_HAL_Driver/Src/stm32g0xx_hal_rcc.c ****   }
 1853              		.loc 1 944 5 view .LVU575
 1854 00fe 1C4A     		ldr	r2, .L172+4
 1855 0100 9368     		ldr	r3, [r2, #8]
ARM GAS  C:\Users\tugru\AppData\Local\Temp\ccZeWSML.s 			page 60


 1856 0102 1E49     		ldr	r1, .L172+16
 1857 0104 0B40     		ands	r3, r1
 1858 0106 E168     		ldr	r1, [r4, #12]
 1859 0108 0B43     		orrs	r3, r1
 1860 010a 9360     		str	r3, [r2, #8]
 1861              	.L156:
 948:Drivers/STM32G0xx_HAL_Driver/Src/stm32g0xx_hal_rcc.c **** 
 1862              		.loc 1 948 3 view .LVU576
 948:Drivers/STM32G0xx_HAL_Driver/Src/stm32g0xx_hal_rcc.c **** 
 1863              		.loc 1 948 22 is_stmt 0 view .LVU577
 1864 010c FFF7FEFF 		bl	HAL_RCC_GetSysClockFreq
 1865              	.LVL136:
 948:Drivers/STM32G0xx_HAL_Driver/Src/stm32g0xx_hal_rcc.c **** 
 1866              		.loc 1 948 71 view .LVU578
 1867 0110 174B     		ldr	r3, .L172+4
 1868 0112 9A68     		ldr	r2, [r3, #8]
 948:Drivers/STM32G0xx_HAL_Driver/Src/stm32g0xx_hal_rcc.c **** 
 1869              		.loc 1 948 95 view .LVU579
 1870 0114 120A     		lsrs	r2, r2, #8
 1871 0116 0F23     		movs	r3, #15
 1872 0118 1340     		ands	r3, r2
 948:Drivers/STM32G0xx_HAL_Driver/Src/stm32g0xx_hal_rcc.c **** 
 1873              		.loc 1 948 66 view .LVU580
 1874 011a 9B00     		lsls	r3, r3, #2
 1875 011c 184A     		ldr	r2, .L172+20
 1876 011e 9A58     		ldr	r2, [r3, r2]
 948:Drivers/STM32G0xx_HAL_Driver/Src/stm32g0xx_hal_rcc.c **** 
 1877              		.loc 1 948 118 view .LVU581
 1878 0120 1F23     		movs	r3, #31
 1879 0122 1340     		ands	r3, r2
 948:Drivers/STM32G0xx_HAL_Driver/Src/stm32g0xx_hal_rcc.c **** 
 1880              		.loc 1 948 48 view .LVU582
 1881 0124 D840     		lsrs	r0, r0, r3
 948:Drivers/STM32G0xx_HAL_Driver/Src/stm32g0xx_hal_rcc.c **** 
 1882              		.loc 1 948 19 view .LVU583
 1883 0126 174B     		ldr	r3, .L172+24
 1884 0128 1860     		str	r0, [r3]
 951:Drivers/STM32G0xx_HAL_Driver/Src/stm32g0xx_hal_rcc.c **** }
 1885              		.loc 1 951 3 is_stmt 1 view .LVU584
 951:Drivers/STM32G0xx_HAL_Driver/Src/stm32g0xx_hal_rcc.c **** }
 1886              		.loc 1 951 10 is_stmt 0 view .LVU585
 1887 012a 174B     		ldr	r3, .L172+28
 1888 012c 1868     		ldr	r0, [r3]
 1889 012e FFF7FEFF 		bl	HAL_InitTick
 1890              	.LVL137:
 1891              	.L139:
 952:Drivers/STM32G0xx_HAL_Driver/Src/stm32g0xx_hal_rcc.c **** 
 1892              		.loc 1 952 1 view .LVU586
 1893              		@ sp needed
 1894              	.LVL138:
 1895              	.LVL139:
 952:Drivers/STM32G0xx_HAL_Driver/Src/stm32g0xx_hal_rcc.c **** 
 1896              		.loc 1 952 1 view .LVU587
 1897 0132 70BD     		pop	{r4, r5, r6, pc}
 1898              	.LVL140:
 1899              	.L171:
 925:Drivers/STM32G0xx_HAL_Driver/Src/stm32g0xx_hal_rcc.c **** 
ARM GAS  C:\Users\tugru\AppData\Local\Temp\ccZeWSML.s 			page 61


 1900              		.loc 1 925 5 is_stmt 1 view .LVU588
 1901 0134 0D4A     		ldr	r2, .L172
 1902 0136 1368     		ldr	r3, [r2]
 1903 0138 0721     		movs	r1, #7
 1904 013a 8B43     		bics	r3, r1
 1905 013c 2B43     		orrs	r3, r5
 1906 013e 1360     		str	r3, [r2]
 929:Drivers/STM32G0xx_HAL_Driver/Src/stm32g0xx_hal_rcc.c **** 
 1907              		.loc 1 929 5 view .LVU589
 929:Drivers/STM32G0xx_HAL_Driver/Src/stm32g0xx_hal_rcc.c **** 
 1908              		.loc 1 929 17 is_stmt 0 view .LVU590
 1909 0140 FFF7FEFF 		bl	HAL_GetTick
 1910              	.LVL141:
 1911 0144 0600     		movs	r6, r0
 1912              	.LVL142:
 931:Drivers/STM32G0xx_HAL_Driver/Src/stm32g0xx_hal_rcc.c ****     {
 1913              		.loc 1 931 5 is_stmt 1 view .LVU591
 1914              	.L154:
 931:Drivers/STM32G0xx_HAL_Driver/Src/stm32g0xx_hal_rcc.c ****     {
 1915              		.loc 1 931 11 view .LVU592
 931:Drivers/STM32G0xx_HAL_Driver/Src/stm32g0xx_hal_rcc.c ****     {
 1916              		.loc 1 931 18 is_stmt 0 view .LVU593
 1917 0146 094B     		ldr	r3, .L172
 1918 0148 1A68     		ldr	r2, [r3]
 931:Drivers/STM32G0xx_HAL_Driver/Src/stm32g0xx_hal_rcc.c ****     {
 1919              		.loc 1 931 24 view .LVU594
 1920 014a 0723     		movs	r3, #7
 1921 014c 1340     		ands	r3, r2
 931:Drivers/STM32G0xx_HAL_Driver/Src/stm32g0xx_hal_rcc.c ****     {
 1922              		.loc 1 931 11 view .LVU595
 1923 014e AB42     		cmp	r3, r5
 1924 0150 D2D0     		beq	.L153
 933:Drivers/STM32G0xx_HAL_Driver/Src/stm32g0xx_hal_rcc.c ****       {
 1925              		.loc 1 933 7 is_stmt 1 view .LVU596
 933:Drivers/STM32G0xx_HAL_Driver/Src/stm32g0xx_hal_rcc.c ****       {
 1926              		.loc 1 933 12 is_stmt 0 view .LVU597
 1927 0152 FFF7FEFF 		bl	HAL_GetTick
 1928              	.LVL143:
 933:Drivers/STM32G0xx_HAL_Driver/Src/stm32g0xx_hal_rcc.c ****       {
 1929              		.loc 1 933 26 view .LVU598
 1930 0156 801B     		subs	r0, r0, r6
 933:Drivers/STM32G0xx_HAL_Driver/Src/stm32g0xx_hal_rcc.c ****       {
 1931              		.loc 1 933 10 view .LVU599
 1932 0158 074B     		ldr	r3, .L172+12
 1933 015a 9842     		cmp	r0, r3
 1934 015c F3D9     		bls	.L154
 935:Drivers/STM32G0xx_HAL_Driver/Src/stm32g0xx_hal_rcc.c ****       }
 1935              		.loc 1 935 16 view .LVU600
 1936 015e 0320     		movs	r0, #3
 1937 0160 E7E7     		b	.L139
 1938              	.LVL144:
 1939              	.L157:
 812:Drivers/STM32G0xx_HAL_Driver/Src/stm32g0xx_hal_rcc.c ****   }
 1940              		.loc 1 812 12 view .LVU601
 1941 0162 0120     		movs	r0, #1
 1942              	.LVL145:
 812:Drivers/STM32G0xx_HAL_Driver/Src/stm32g0xx_hal_rcc.c ****   }
ARM GAS  C:\Users\tugru\AppData\Local\Temp\ccZeWSML.s 			page 62


 1943              		.loc 1 812 12 view .LVU602
 1944 0164 E5E7     		b	.L139
 1945              	.LVL146:
 1946              	.L169:
 868:Drivers/STM32G0xx_HAL_Driver/Src/stm32g0xx_hal_rcc.c ****       }
 1947              		.loc 1 868 16 view .LVU603
 1948 0166 0120     		movs	r0, #1
 1949 0168 E3E7     		b	.L139
 1950              	.L173:
 1951 016a C046     		.align	2
 1952              	.L172:
 1953 016c 00200240 		.word	1073881088
 1954 0170 00100240 		.word	1073876992
 1955 0174 FFF0FFFF 		.word	-3841
 1956 0178 88130000 		.word	5000
 1957 017c FF8FFFFF 		.word	-28673
 1958 0180 00000000 		.word	AHBPrescTable
 1959 0184 00000000 		.word	SystemCoreClock
 1960 0188 00000000 		.word	uwTickPrio
 1961              		.cfi_endproc
 1962              	.LFE312:
 1964              		.section	.text.HAL_RCC_GetHCLKFreq,"ax",%progbits
 1965              		.align	1
 1966              		.global	HAL_RCC_GetHCLKFreq
 1967              		.syntax unified
 1968              		.code	16
 1969              		.thumb_func
 1971              	HAL_RCC_GetHCLKFreq:
 1972              	.LFB315:
1187:Drivers/STM32G0xx_HAL_Driver/Src/stm32g0xx_hal_rcc.c **** 
1188:Drivers/STM32G0xx_HAL_Driver/Src/stm32g0xx_hal_rcc.c **** /**
1189:Drivers/STM32G0xx_HAL_Driver/Src/stm32g0xx_hal_rcc.c ****   * @brief  Return the HCLK frequency.
1190:Drivers/STM32G0xx_HAL_Driver/Src/stm32g0xx_hal_rcc.c ****   * @note   Each time HCLK changes, this function must be called to update the
1191:Drivers/STM32G0xx_HAL_Driver/Src/stm32g0xx_hal_rcc.c ****   *         right HCLK value. Otherwise, any configuration based on this function will be incorrect
1192:Drivers/STM32G0xx_HAL_Driver/Src/stm32g0xx_hal_rcc.c ****   *
1193:Drivers/STM32G0xx_HAL_Driver/Src/stm32g0xx_hal_rcc.c ****   * @note   The SystemCoreClock CMSIS variable is used to store System Clock Frequency.
1194:Drivers/STM32G0xx_HAL_Driver/Src/stm32g0xx_hal_rcc.c ****   * @retval HCLK frequency in Hz
1195:Drivers/STM32G0xx_HAL_Driver/Src/stm32g0xx_hal_rcc.c ****   */
1196:Drivers/STM32G0xx_HAL_Driver/Src/stm32g0xx_hal_rcc.c **** uint32_t HAL_RCC_GetHCLKFreq(void)
1197:Drivers/STM32G0xx_HAL_Driver/Src/stm32g0xx_hal_rcc.c **** {
 1973              		.loc 1 1197 1 is_stmt 1 view -0
 1974              		.cfi_startproc
 1975              		@ args = 0, pretend = 0, frame = 0
 1976              		@ frame_needed = 0, uses_anonymous_args = 0
 1977              		@ link register save eliminated.
1198:Drivers/STM32G0xx_HAL_Driver/Src/stm32g0xx_hal_rcc.c ****   return SystemCoreClock;
 1978              		.loc 1 1198 3 view .LVU605
 1979              		.loc 1 1198 10 is_stmt 0 view .LVU606
 1980 0000 014B     		ldr	r3, .L175
 1981 0002 1868     		ldr	r0, [r3]
1199:Drivers/STM32G0xx_HAL_Driver/Src/stm32g0xx_hal_rcc.c **** }
 1982              		.loc 1 1199 1 view .LVU607
 1983              		@ sp needed
 1984 0004 7047     		bx	lr
 1985              	.L176:
 1986 0006 C046     		.align	2
 1987              	.L175:
ARM GAS  C:\Users\tugru\AppData\Local\Temp\ccZeWSML.s 			page 63


 1988 0008 00000000 		.word	SystemCoreClock
 1989              		.cfi_endproc
 1990              	.LFE315:
 1992              		.section	.text.HAL_RCC_GetPCLK1Freq,"ax",%progbits
 1993              		.align	1
 1994              		.global	HAL_RCC_GetPCLK1Freq
 1995              		.syntax unified
 1996              		.code	16
 1997              		.thumb_func
 1999              	HAL_RCC_GetPCLK1Freq:
 2000              	.LFB316:
1200:Drivers/STM32G0xx_HAL_Driver/Src/stm32g0xx_hal_rcc.c **** 
1201:Drivers/STM32G0xx_HAL_Driver/Src/stm32g0xx_hal_rcc.c **** /**
1202:Drivers/STM32G0xx_HAL_Driver/Src/stm32g0xx_hal_rcc.c ****   * @brief  Return the PCLK1 frequency.
1203:Drivers/STM32G0xx_HAL_Driver/Src/stm32g0xx_hal_rcc.c ****   * @note   Each time PCLK1 changes, this function must be called to update the
1204:Drivers/STM32G0xx_HAL_Driver/Src/stm32g0xx_hal_rcc.c ****   *         right PCLK1 value. Otherwise, any configuration based on this function will be incorrec
1205:Drivers/STM32G0xx_HAL_Driver/Src/stm32g0xx_hal_rcc.c ****   * @retval PCLK1 frequency in Hz
1206:Drivers/STM32G0xx_HAL_Driver/Src/stm32g0xx_hal_rcc.c ****   */
1207:Drivers/STM32G0xx_HAL_Driver/Src/stm32g0xx_hal_rcc.c **** uint32_t HAL_RCC_GetPCLK1Freq(void)
1208:Drivers/STM32G0xx_HAL_Driver/Src/stm32g0xx_hal_rcc.c **** {
 2001              		.loc 1 1208 1 is_stmt 1 view -0
 2002              		.cfi_startproc
 2003              		@ args = 0, pretend = 0, frame = 0
 2004              		@ frame_needed = 0, uses_anonymous_args = 0
 2005 0000 10B5     		push	{r4, lr}
 2006              	.LCFI7:
 2007              		.cfi_def_cfa_offset 8
 2008              		.cfi_offset 4, -8
 2009              		.cfi_offset 14, -4
1209:Drivers/STM32G0xx_HAL_Driver/Src/stm32g0xx_hal_rcc.c ****   /* Get HCLK source and Compute PCLK1 frequency ---------------------------*/
1210:Drivers/STM32G0xx_HAL_Driver/Src/stm32g0xx_hal_rcc.c ****   return ((uint32_t)(__LL_RCC_CALC_PCLK1_FREQ(HAL_RCC_GetHCLKFreq(), LL_RCC_GetAPB1Prescaler())));
 2010              		.loc 1 1210 3 view .LVU609
 2011              		.loc 1 1210 22 is_stmt 0 view .LVU610
 2012 0002 FFF7FEFF 		bl	HAL_RCC_GetHCLKFreq
 2013              	.LVL147:
 2014              	.LBB8:
 2015              	.LBI8:
 2016              		.file 2 "Drivers/STM32G0xx_HAL_Driver/Inc/stm32g0xx_ll_rcc.h"
   1:Drivers/STM32G0xx_HAL_Driver/Inc/stm32g0xx_ll_rcc.h **** /**
   2:Drivers/STM32G0xx_HAL_Driver/Inc/stm32g0xx_ll_rcc.h ****   ******************************************************************************
   3:Drivers/STM32G0xx_HAL_Driver/Inc/stm32g0xx_ll_rcc.h ****   * @file    stm32g0xx_ll_rcc.h
   4:Drivers/STM32G0xx_HAL_Driver/Inc/stm32g0xx_ll_rcc.h ****   * @author  MCD Application Team
   5:Drivers/STM32G0xx_HAL_Driver/Inc/stm32g0xx_ll_rcc.h ****   * @brief   Header file of RCC LL module.
   6:Drivers/STM32G0xx_HAL_Driver/Inc/stm32g0xx_ll_rcc.h ****   ******************************************************************************
   7:Drivers/STM32G0xx_HAL_Driver/Inc/stm32g0xx_ll_rcc.h ****   * @attention
   8:Drivers/STM32G0xx_HAL_Driver/Inc/stm32g0xx_ll_rcc.h ****   *
   9:Drivers/STM32G0xx_HAL_Driver/Inc/stm32g0xx_ll_rcc.h ****   * Copyright (c) 2018 STMicroelectronics.
  10:Drivers/STM32G0xx_HAL_Driver/Inc/stm32g0xx_ll_rcc.h ****   * All rights reserved.
  11:Drivers/STM32G0xx_HAL_Driver/Inc/stm32g0xx_ll_rcc.h ****   *
  12:Drivers/STM32G0xx_HAL_Driver/Inc/stm32g0xx_ll_rcc.h ****   * This software is licensed under terms that can be found in the LICENSE file in
  13:Drivers/STM32G0xx_HAL_Driver/Inc/stm32g0xx_ll_rcc.h ****   * the root directory of this software component.
  14:Drivers/STM32G0xx_HAL_Driver/Inc/stm32g0xx_ll_rcc.h ****   * If no LICENSE file comes with this software, it is provided AS-IS.
  15:Drivers/STM32G0xx_HAL_Driver/Inc/stm32g0xx_ll_rcc.h ****   ******************************************************************************
  16:Drivers/STM32G0xx_HAL_Driver/Inc/stm32g0xx_ll_rcc.h ****   */
  17:Drivers/STM32G0xx_HAL_Driver/Inc/stm32g0xx_ll_rcc.h **** 
  18:Drivers/STM32G0xx_HAL_Driver/Inc/stm32g0xx_ll_rcc.h **** /* Define to prevent recursive inclusion -------------------------------------*/
  19:Drivers/STM32G0xx_HAL_Driver/Inc/stm32g0xx_ll_rcc.h **** #ifndef STM32G0xx_LL_RCC_H
ARM GAS  C:\Users\tugru\AppData\Local\Temp\ccZeWSML.s 			page 64


  20:Drivers/STM32G0xx_HAL_Driver/Inc/stm32g0xx_ll_rcc.h **** #define STM32G0xx_LL_RCC_H
  21:Drivers/STM32G0xx_HAL_Driver/Inc/stm32g0xx_ll_rcc.h **** 
  22:Drivers/STM32G0xx_HAL_Driver/Inc/stm32g0xx_ll_rcc.h **** #ifdef __cplusplus
  23:Drivers/STM32G0xx_HAL_Driver/Inc/stm32g0xx_ll_rcc.h **** extern "C" {
  24:Drivers/STM32G0xx_HAL_Driver/Inc/stm32g0xx_ll_rcc.h **** #endif
  25:Drivers/STM32G0xx_HAL_Driver/Inc/stm32g0xx_ll_rcc.h **** 
  26:Drivers/STM32G0xx_HAL_Driver/Inc/stm32g0xx_ll_rcc.h **** /* Includes ------------------------------------------------------------------*/
  27:Drivers/STM32G0xx_HAL_Driver/Inc/stm32g0xx_ll_rcc.h **** #include "stm32g0xx.h"
  28:Drivers/STM32G0xx_HAL_Driver/Inc/stm32g0xx_ll_rcc.h **** 
  29:Drivers/STM32G0xx_HAL_Driver/Inc/stm32g0xx_ll_rcc.h **** /** @addtogroup STM32G0xx_LL_Driver
  30:Drivers/STM32G0xx_HAL_Driver/Inc/stm32g0xx_ll_rcc.h ****   * @{
  31:Drivers/STM32G0xx_HAL_Driver/Inc/stm32g0xx_ll_rcc.h ****   */
  32:Drivers/STM32G0xx_HAL_Driver/Inc/stm32g0xx_ll_rcc.h **** 
  33:Drivers/STM32G0xx_HAL_Driver/Inc/stm32g0xx_ll_rcc.h **** #if defined(RCC)
  34:Drivers/STM32G0xx_HAL_Driver/Inc/stm32g0xx_ll_rcc.h **** 
  35:Drivers/STM32G0xx_HAL_Driver/Inc/stm32g0xx_ll_rcc.h **** /** @defgroup RCC_LL RCC
  36:Drivers/STM32G0xx_HAL_Driver/Inc/stm32g0xx_ll_rcc.h ****   * @{
  37:Drivers/STM32G0xx_HAL_Driver/Inc/stm32g0xx_ll_rcc.h ****   */
  38:Drivers/STM32G0xx_HAL_Driver/Inc/stm32g0xx_ll_rcc.h **** 
  39:Drivers/STM32G0xx_HAL_Driver/Inc/stm32g0xx_ll_rcc.h **** /* Private types -------------------------------------------------------------*/
  40:Drivers/STM32G0xx_HAL_Driver/Inc/stm32g0xx_ll_rcc.h **** /* Private variables ---------------------------------------------------------*/
  41:Drivers/STM32G0xx_HAL_Driver/Inc/stm32g0xx_ll_rcc.h **** /** @defgroup RCC_LL_Private_Variables RCC Private Variables
  42:Drivers/STM32G0xx_HAL_Driver/Inc/stm32g0xx_ll_rcc.h ****   * @{
  43:Drivers/STM32G0xx_HAL_Driver/Inc/stm32g0xx_ll_rcc.h ****   */
  44:Drivers/STM32G0xx_HAL_Driver/Inc/stm32g0xx_ll_rcc.h **** 
  45:Drivers/STM32G0xx_HAL_Driver/Inc/stm32g0xx_ll_rcc.h **** 
  46:Drivers/STM32G0xx_HAL_Driver/Inc/stm32g0xx_ll_rcc.h **** /**
  47:Drivers/STM32G0xx_HAL_Driver/Inc/stm32g0xx_ll_rcc.h ****   * @}
  48:Drivers/STM32G0xx_HAL_Driver/Inc/stm32g0xx_ll_rcc.h ****   */
  49:Drivers/STM32G0xx_HAL_Driver/Inc/stm32g0xx_ll_rcc.h **** 
  50:Drivers/STM32G0xx_HAL_Driver/Inc/stm32g0xx_ll_rcc.h **** /* Private constants ---------------------------------------------------------*/
  51:Drivers/STM32G0xx_HAL_Driver/Inc/stm32g0xx_ll_rcc.h **** /* Private macros ------------------------------------------------------------*/
  52:Drivers/STM32G0xx_HAL_Driver/Inc/stm32g0xx_ll_rcc.h **** #if defined(USE_FULL_LL_DRIVER)
  53:Drivers/STM32G0xx_HAL_Driver/Inc/stm32g0xx_ll_rcc.h **** /** @defgroup RCC_LL_Private_Macros RCC Private Macros
  54:Drivers/STM32G0xx_HAL_Driver/Inc/stm32g0xx_ll_rcc.h ****   * @{
  55:Drivers/STM32G0xx_HAL_Driver/Inc/stm32g0xx_ll_rcc.h ****   */
  56:Drivers/STM32G0xx_HAL_Driver/Inc/stm32g0xx_ll_rcc.h **** /**
  57:Drivers/STM32G0xx_HAL_Driver/Inc/stm32g0xx_ll_rcc.h ****   * @}
  58:Drivers/STM32G0xx_HAL_Driver/Inc/stm32g0xx_ll_rcc.h ****   */
  59:Drivers/STM32G0xx_HAL_Driver/Inc/stm32g0xx_ll_rcc.h **** #endif /*USE_FULL_LL_DRIVER*/
  60:Drivers/STM32G0xx_HAL_Driver/Inc/stm32g0xx_ll_rcc.h **** 
  61:Drivers/STM32G0xx_HAL_Driver/Inc/stm32g0xx_ll_rcc.h **** /* Exported types ------------------------------------------------------------*/
  62:Drivers/STM32G0xx_HAL_Driver/Inc/stm32g0xx_ll_rcc.h **** #if defined(USE_FULL_LL_DRIVER)
  63:Drivers/STM32G0xx_HAL_Driver/Inc/stm32g0xx_ll_rcc.h **** /** @defgroup RCC_LL_Exported_Types RCC Exported Types
  64:Drivers/STM32G0xx_HAL_Driver/Inc/stm32g0xx_ll_rcc.h ****   * @{
  65:Drivers/STM32G0xx_HAL_Driver/Inc/stm32g0xx_ll_rcc.h ****   */
  66:Drivers/STM32G0xx_HAL_Driver/Inc/stm32g0xx_ll_rcc.h **** 
  67:Drivers/STM32G0xx_HAL_Driver/Inc/stm32g0xx_ll_rcc.h **** /** @defgroup LL_ES_CLOCK_FREQ Clocks Frequency Structure
  68:Drivers/STM32G0xx_HAL_Driver/Inc/stm32g0xx_ll_rcc.h ****   * @{
  69:Drivers/STM32G0xx_HAL_Driver/Inc/stm32g0xx_ll_rcc.h ****   */
  70:Drivers/STM32G0xx_HAL_Driver/Inc/stm32g0xx_ll_rcc.h **** 
  71:Drivers/STM32G0xx_HAL_Driver/Inc/stm32g0xx_ll_rcc.h **** /**
  72:Drivers/STM32G0xx_HAL_Driver/Inc/stm32g0xx_ll_rcc.h ****   * @brief  RCC Clocks Frequency Structure
  73:Drivers/STM32G0xx_HAL_Driver/Inc/stm32g0xx_ll_rcc.h ****   */
  74:Drivers/STM32G0xx_HAL_Driver/Inc/stm32g0xx_ll_rcc.h **** typedef struct
  75:Drivers/STM32G0xx_HAL_Driver/Inc/stm32g0xx_ll_rcc.h **** {
  76:Drivers/STM32G0xx_HAL_Driver/Inc/stm32g0xx_ll_rcc.h ****   uint32_t SYSCLK_Frequency;        /*!< SYSCLK clock frequency */
ARM GAS  C:\Users\tugru\AppData\Local\Temp\ccZeWSML.s 			page 65


  77:Drivers/STM32G0xx_HAL_Driver/Inc/stm32g0xx_ll_rcc.h ****   uint32_t HCLK_Frequency;          /*!< HCLK clock frequency */
  78:Drivers/STM32G0xx_HAL_Driver/Inc/stm32g0xx_ll_rcc.h ****   uint32_t PCLK1_Frequency;         /*!< PCLK1 clock frequency */
  79:Drivers/STM32G0xx_HAL_Driver/Inc/stm32g0xx_ll_rcc.h **** } LL_RCC_ClocksTypeDef;
  80:Drivers/STM32G0xx_HAL_Driver/Inc/stm32g0xx_ll_rcc.h **** 
  81:Drivers/STM32G0xx_HAL_Driver/Inc/stm32g0xx_ll_rcc.h **** /**
  82:Drivers/STM32G0xx_HAL_Driver/Inc/stm32g0xx_ll_rcc.h ****   * @}
  83:Drivers/STM32G0xx_HAL_Driver/Inc/stm32g0xx_ll_rcc.h ****   */
  84:Drivers/STM32G0xx_HAL_Driver/Inc/stm32g0xx_ll_rcc.h **** 
  85:Drivers/STM32G0xx_HAL_Driver/Inc/stm32g0xx_ll_rcc.h **** /**
  86:Drivers/STM32G0xx_HAL_Driver/Inc/stm32g0xx_ll_rcc.h ****   * @}
  87:Drivers/STM32G0xx_HAL_Driver/Inc/stm32g0xx_ll_rcc.h ****   */
  88:Drivers/STM32G0xx_HAL_Driver/Inc/stm32g0xx_ll_rcc.h **** #endif /* USE_FULL_LL_DRIVER */
  89:Drivers/STM32G0xx_HAL_Driver/Inc/stm32g0xx_ll_rcc.h **** 
  90:Drivers/STM32G0xx_HAL_Driver/Inc/stm32g0xx_ll_rcc.h **** /* Exported constants --------------------------------------------------------*/
  91:Drivers/STM32G0xx_HAL_Driver/Inc/stm32g0xx_ll_rcc.h **** /** @defgroup RCC_LL_Exported_Constants RCC Exported Constants
  92:Drivers/STM32G0xx_HAL_Driver/Inc/stm32g0xx_ll_rcc.h ****   * @{
  93:Drivers/STM32G0xx_HAL_Driver/Inc/stm32g0xx_ll_rcc.h ****   */
  94:Drivers/STM32G0xx_HAL_Driver/Inc/stm32g0xx_ll_rcc.h **** 
  95:Drivers/STM32G0xx_HAL_Driver/Inc/stm32g0xx_ll_rcc.h **** /** @defgroup RCC_LL_EC_OSC_VALUES Oscillator Values adaptation
  96:Drivers/STM32G0xx_HAL_Driver/Inc/stm32g0xx_ll_rcc.h ****   * @brief    Defines used to adapt values of different oscillators
  97:Drivers/STM32G0xx_HAL_Driver/Inc/stm32g0xx_ll_rcc.h ****   * @note     These values could be modified in the user environment according to
  98:Drivers/STM32G0xx_HAL_Driver/Inc/stm32g0xx_ll_rcc.h ****   *           HW set-up.
  99:Drivers/STM32G0xx_HAL_Driver/Inc/stm32g0xx_ll_rcc.h ****   * @{
 100:Drivers/STM32G0xx_HAL_Driver/Inc/stm32g0xx_ll_rcc.h ****   */
 101:Drivers/STM32G0xx_HAL_Driver/Inc/stm32g0xx_ll_rcc.h **** #if !defined  (HSE_VALUE)
 102:Drivers/STM32G0xx_HAL_Driver/Inc/stm32g0xx_ll_rcc.h **** #define HSE_VALUE    8000000U   /*!< Value of the HSE oscillator in Hz */
 103:Drivers/STM32G0xx_HAL_Driver/Inc/stm32g0xx_ll_rcc.h **** #endif /* HSE_VALUE */
 104:Drivers/STM32G0xx_HAL_Driver/Inc/stm32g0xx_ll_rcc.h **** 
 105:Drivers/STM32G0xx_HAL_Driver/Inc/stm32g0xx_ll_rcc.h **** #if !defined  (HSI_VALUE)
 106:Drivers/STM32G0xx_HAL_Driver/Inc/stm32g0xx_ll_rcc.h **** #define HSI_VALUE    16000000U  /*!< Value of the HSI oscillator in Hz */
 107:Drivers/STM32G0xx_HAL_Driver/Inc/stm32g0xx_ll_rcc.h **** #endif /* HSI_VALUE */
 108:Drivers/STM32G0xx_HAL_Driver/Inc/stm32g0xx_ll_rcc.h **** 
 109:Drivers/STM32G0xx_HAL_Driver/Inc/stm32g0xx_ll_rcc.h **** #if !defined  (LSE_VALUE)
 110:Drivers/STM32G0xx_HAL_Driver/Inc/stm32g0xx_ll_rcc.h **** #define LSE_VALUE    32768U     /*!< Value of the LSE oscillator in Hz */
 111:Drivers/STM32G0xx_HAL_Driver/Inc/stm32g0xx_ll_rcc.h **** #endif /* LSE_VALUE */
 112:Drivers/STM32G0xx_HAL_Driver/Inc/stm32g0xx_ll_rcc.h **** 
 113:Drivers/STM32G0xx_HAL_Driver/Inc/stm32g0xx_ll_rcc.h **** #if !defined  (LSI_VALUE)
 114:Drivers/STM32G0xx_HAL_Driver/Inc/stm32g0xx_ll_rcc.h **** #define LSI_VALUE    32000U     /*!< Value of the LSI oscillator in Hz */
 115:Drivers/STM32G0xx_HAL_Driver/Inc/stm32g0xx_ll_rcc.h **** #endif /* LSI_VALUE */
 116:Drivers/STM32G0xx_HAL_Driver/Inc/stm32g0xx_ll_rcc.h **** #if !defined  (EXTERNAL_CLOCK_VALUE)
 117:Drivers/STM32G0xx_HAL_Driver/Inc/stm32g0xx_ll_rcc.h **** #define EXTERNAL_CLOCK_VALUE    48000000U /*!< Value of the I2S_CKIN external oscillator in Hz */
 118:Drivers/STM32G0xx_HAL_Driver/Inc/stm32g0xx_ll_rcc.h **** #endif /* EXTERNAL_CLOCK_VALUE */
 119:Drivers/STM32G0xx_HAL_Driver/Inc/stm32g0xx_ll_rcc.h **** 
 120:Drivers/STM32G0xx_HAL_Driver/Inc/stm32g0xx_ll_rcc.h **** #if defined(RCC_HSI48_SUPPORT)
 121:Drivers/STM32G0xx_HAL_Driver/Inc/stm32g0xx_ll_rcc.h **** #if !defined  (HSI48_VALUE)
 122:Drivers/STM32G0xx_HAL_Driver/Inc/stm32g0xx_ll_rcc.h **** #define HSI48_VALUE  48000000U  /*!< Value of the HSI48 oscillator in Hz */
 123:Drivers/STM32G0xx_HAL_Driver/Inc/stm32g0xx_ll_rcc.h **** #endif /* HSI48_VALUE */
 124:Drivers/STM32G0xx_HAL_Driver/Inc/stm32g0xx_ll_rcc.h **** #endif /* RCC_HSI48_SUPPORT */
 125:Drivers/STM32G0xx_HAL_Driver/Inc/stm32g0xx_ll_rcc.h **** /**
 126:Drivers/STM32G0xx_HAL_Driver/Inc/stm32g0xx_ll_rcc.h ****   * @}
 127:Drivers/STM32G0xx_HAL_Driver/Inc/stm32g0xx_ll_rcc.h ****   */
 128:Drivers/STM32G0xx_HAL_Driver/Inc/stm32g0xx_ll_rcc.h **** 
 129:Drivers/STM32G0xx_HAL_Driver/Inc/stm32g0xx_ll_rcc.h **** /** @defgroup RCC_LL_EC_CLEAR_FLAG Clear Flags Defines
 130:Drivers/STM32G0xx_HAL_Driver/Inc/stm32g0xx_ll_rcc.h ****   * @brief    Flags defines which can be used with LL_RCC_WriteReg function
 131:Drivers/STM32G0xx_HAL_Driver/Inc/stm32g0xx_ll_rcc.h ****   * @{
 132:Drivers/STM32G0xx_HAL_Driver/Inc/stm32g0xx_ll_rcc.h ****   */
 133:Drivers/STM32G0xx_HAL_Driver/Inc/stm32g0xx_ll_rcc.h **** #define LL_RCC_CICR_LSIRDYC                RCC_CICR_LSIRDYC     /*!< LSI Ready Interrupt Clear */
ARM GAS  C:\Users\tugru\AppData\Local\Temp\ccZeWSML.s 			page 66


 134:Drivers/STM32G0xx_HAL_Driver/Inc/stm32g0xx_ll_rcc.h **** #define LL_RCC_CICR_LSERDYC                RCC_CICR_LSERDYC     /*!< LSE Ready Interrupt Clear */
 135:Drivers/STM32G0xx_HAL_Driver/Inc/stm32g0xx_ll_rcc.h **** #define LL_RCC_CICR_HSIRDYC                RCC_CICR_HSIRDYC     /*!< HSI Ready Interrupt Clear */
 136:Drivers/STM32G0xx_HAL_Driver/Inc/stm32g0xx_ll_rcc.h **** #define LL_RCC_CICR_HSERDYC                RCC_CICR_HSERDYC     /*!< HSE Ready Interrupt Clear */
 137:Drivers/STM32G0xx_HAL_Driver/Inc/stm32g0xx_ll_rcc.h **** #define LL_RCC_CICR_PLLRDYC                RCC_CICR_PLLRDYC     /*!< PLL Ready Interrupt Clear */
 138:Drivers/STM32G0xx_HAL_Driver/Inc/stm32g0xx_ll_rcc.h **** #define LL_RCC_CICR_LSECSSC                RCC_CICR_LSECSSC     /*!< LSE Clock Security System Inte
 139:Drivers/STM32G0xx_HAL_Driver/Inc/stm32g0xx_ll_rcc.h **** #define LL_RCC_CICR_CSSC                   RCC_CICR_CSSC        /*!< Clock Security System Interrup
 140:Drivers/STM32G0xx_HAL_Driver/Inc/stm32g0xx_ll_rcc.h **** #if defined(RCC_HSI48_SUPPORT)
 141:Drivers/STM32G0xx_HAL_Driver/Inc/stm32g0xx_ll_rcc.h **** #define LL_RCC_CICR_HSI48RDYC              RCC_CICR_HSI48RDYC   /*!< HSI48 Ready Interrupt Clear */
 142:Drivers/STM32G0xx_HAL_Driver/Inc/stm32g0xx_ll_rcc.h **** #endif /* RCC_HSI48_SUPPORT */
 143:Drivers/STM32G0xx_HAL_Driver/Inc/stm32g0xx_ll_rcc.h **** /**
 144:Drivers/STM32G0xx_HAL_Driver/Inc/stm32g0xx_ll_rcc.h ****   * @}
 145:Drivers/STM32G0xx_HAL_Driver/Inc/stm32g0xx_ll_rcc.h ****   */
 146:Drivers/STM32G0xx_HAL_Driver/Inc/stm32g0xx_ll_rcc.h **** 
 147:Drivers/STM32G0xx_HAL_Driver/Inc/stm32g0xx_ll_rcc.h **** /** @defgroup RCC_LL_EC_GET_FLAG Get Flags Defines
 148:Drivers/STM32G0xx_HAL_Driver/Inc/stm32g0xx_ll_rcc.h ****   * @brief    Flags defines which can be used with LL_RCC_ReadReg function
 149:Drivers/STM32G0xx_HAL_Driver/Inc/stm32g0xx_ll_rcc.h ****   * @{
 150:Drivers/STM32G0xx_HAL_Driver/Inc/stm32g0xx_ll_rcc.h ****   */
 151:Drivers/STM32G0xx_HAL_Driver/Inc/stm32g0xx_ll_rcc.h **** #define LL_RCC_CIFR_LSIRDYF                RCC_CIFR_LSIRDYF     /*!< LSI Ready Interrupt flag */
 152:Drivers/STM32G0xx_HAL_Driver/Inc/stm32g0xx_ll_rcc.h **** #define LL_RCC_CIFR_LSERDYF                RCC_CIFR_LSERDYF     /*!< LSE Ready Interrupt flag */
 153:Drivers/STM32G0xx_HAL_Driver/Inc/stm32g0xx_ll_rcc.h **** #define LL_RCC_CIFR_HSIRDYF                RCC_CIFR_HSIRDYF     /*!< HSI Ready Interrupt flag */
 154:Drivers/STM32G0xx_HAL_Driver/Inc/stm32g0xx_ll_rcc.h **** #if defined(RCC_HSI48_SUPPORT)
 155:Drivers/STM32G0xx_HAL_Driver/Inc/stm32g0xx_ll_rcc.h **** #define LL_RCC_CIFR_HSI48RDYF              RCC_CIFR_HSI48RDYF   /*!< HSI48 Ready Interrupt flag */
 156:Drivers/STM32G0xx_HAL_Driver/Inc/stm32g0xx_ll_rcc.h **** #endif /* RCC_HSI48_SUPPORT */
 157:Drivers/STM32G0xx_HAL_Driver/Inc/stm32g0xx_ll_rcc.h **** #define LL_RCC_CIFR_HSERDYF                RCC_CIFR_HSERDYF     /*!< HSE Ready Interrupt flag */
 158:Drivers/STM32G0xx_HAL_Driver/Inc/stm32g0xx_ll_rcc.h **** #define LL_RCC_CIFR_PLLRDYF                RCC_CIFR_PLLRDYF     /*!< PLL Ready Interrupt flag */
 159:Drivers/STM32G0xx_HAL_Driver/Inc/stm32g0xx_ll_rcc.h **** #define LL_RCC_CIFR_LSECSSF                RCC_CIFR_LSECSSF     /*!< LSE Clock Security System Inte
 160:Drivers/STM32G0xx_HAL_Driver/Inc/stm32g0xx_ll_rcc.h **** #define LL_RCC_CIFR_CSSF                   RCC_CIFR_CSSF        /*!< Clock Security System Interrup
 161:Drivers/STM32G0xx_HAL_Driver/Inc/stm32g0xx_ll_rcc.h **** #define LL_RCC_CSR_LPWRRSTF                RCC_CSR_LPWRRSTF   /*!< Low-Power reset flag */
 162:Drivers/STM32G0xx_HAL_Driver/Inc/stm32g0xx_ll_rcc.h **** #define LL_RCC_CSR_OBLRSTF                 RCC_CSR_OBLRSTF    /*!< OBL reset flag */
 163:Drivers/STM32G0xx_HAL_Driver/Inc/stm32g0xx_ll_rcc.h **** #define LL_RCC_CSR_PINRSTF                 RCC_CSR_PINRSTF    /*!< PIN reset flag */
 164:Drivers/STM32G0xx_HAL_Driver/Inc/stm32g0xx_ll_rcc.h **** #define LL_RCC_CSR_SFTRSTF                 RCC_CSR_SFTRSTF    /*!< Software Reset flag */
 165:Drivers/STM32G0xx_HAL_Driver/Inc/stm32g0xx_ll_rcc.h **** #define LL_RCC_CSR_IWDGRSTF                RCC_CSR_IWDGRSTF   /*!< Independent Watchdog reset flag 
 166:Drivers/STM32G0xx_HAL_Driver/Inc/stm32g0xx_ll_rcc.h **** #define LL_RCC_CSR_WWDGRSTF                RCC_CSR_WWDGRSTF   /*!< Window watchdog reset flag */
 167:Drivers/STM32G0xx_HAL_Driver/Inc/stm32g0xx_ll_rcc.h **** #define LL_RCC_CSR_PWRRSTF                 RCC_CSR_PWRRSTF    /*!< BOR or POR/PDR reset flag */
 168:Drivers/STM32G0xx_HAL_Driver/Inc/stm32g0xx_ll_rcc.h **** /**
 169:Drivers/STM32G0xx_HAL_Driver/Inc/stm32g0xx_ll_rcc.h ****   * @}
 170:Drivers/STM32G0xx_HAL_Driver/Inc/stm32g0xx_ll_rcc.h ****   */
 171:Drivers/STM32G0xx_HAL_Driver/Inc/stm32g0xx_ll_rcc.h **** 
 172:Drivers/STM32G0xx_HAL_Driver/Inc/stm32g0xx_ll_rcc.h **** /** @defgroup RCC_LL_EC_IT IT Defines
 173:Drivers/STM32G0xx_HAL_Driver/Inc/stm32g0xx_ll_rcc.h ****   * @brief    IT defines which can be used with LL_RCC_ReadReg and  LL_RCC_WriteReg functions
